(lp0
(S'Carolina'
p1
S'Casandra'
p2
S'Alicia'
p3
S'Hannah'
p4
S'Tyranny'
p5
S'Kathryn'
p6
S'Taylor'
p7
S'Kari'
p8
S'Kam'
p9
S'Gianna'
p10
S'Shannon'
p11
tp12
a(g1
g2
g3
g9
g5
g6
g7
g8
g4
g10
g11
tp13
a(g1
g2
g9
g3
g4
g6
g8
g5
g7
g10
g11
tp14
a(g1
g2
g9
g3
g5
g6
g8
g7
g4
g10
g11
tp15
a(g1
g2
g9
g3
g5
g6
g7
g8
g10
g4
g11
tp16
a(g1
g2
g9
g4
g3
g6
g8
g5
g7
g10
g11
tp17
a(g1
g2
g9
g4
g5
g6
g8
g7
g3
g10
g11
tp18
a(g1
g2
g9
g8
g5
g6
g3
g4
g7
g10
g11
tp19
a(g1
g2
g9
g6
g5
g4
g8
g3
g7
g10
g11
tp20
a(g1
g2
g9
g5
g3
g6
g8
g4
g7
g10
g11
tp21
a(g1
g2
g8
g9
g5
g6
g4
g3
g7
g10
g11
tp22
a(g1
g10
g3
g4
g2
g6
g7
g8
g9
g5
g11
tp23
a(g1
g10
g3
g9
g2
g6
g7
g8
g4
g5
g11
tp24
a(g1
g10
g3
g5
g2
g6
g7
g8
g4
g9
g11
tp25
a(g1
g10
g9
g3
g2
g6
g8
g7
g4
g5
g11
tp26
a(g1
g10
g9
g3
g2
g6
g8
g5
g4
g7
g11
tp27
a(g1
g10
g9
g3
g2
g6
g5
g4
g7
g8
g11
tp28
a(g1
g10
g9
g3
g5
g6
g7
g8
g4
g2
g11
tp29
a(g1
g10
g9
g2
g8
g6
g4
g3
g7
g5
g11
tp30
a(g1
g10
g9
g2
g5
g6
g7
g8
g4
g3
g11
tp31
a(g1
g10
g9
g4
g2
g6
g3
g5
g7
g8
g11
tp32
a(g1
g10
g9
g4
g2
g6
g8
g7
g3
g5
g11
tp33
a(g1
g10
g9
g4
g2
g6
g8
g5
g3
g7
g11
tp34
a(g1
g10
g9
g4
g5
g6
g7
g8
g3
g2
g11
tp35
a(g1
g10
g9
g4
g5
g6
g7
g8
g2
g3
g11
tp36
a(g1
g10
g9
g8
g2
g6
g3
g4
g7
g5
g11
tp37
a(g1
g10
g9
g8
g2
g6
g5
g4
g7
g3
g11
tp38
a(g1
g10
g9
g8
g2
g6
g5
g7
g3
g4
g11
tp39
a(g1
g10
g9
g8
g2
g5
g6
g3
g7
g4
g11
tp40
a(g1
g10
g9
g8
g5
g6
g4
g3
g2
g7
g11
tp41
a(g1
g10
g9
g6
g2
g4
g8
g3
g7
g5
g11
tp42
a(g1
g10
g9
g6
g2
g8
g5
g3
g7
g4
g11
tp43
a(g1
g10
g9
g11
g5
g6
g7
g3
g2
g4
g8
tp44
a(g1
g10
g9
g5
g3
g6
g7
g8
g2
g4
g11
tp45
a(g1
g10
g9
g5
g2
g8
g6
g3
g7
g4
g11
tp46
a(g1
g10
g9
g5
g2
g6
g3
g4
g7
g8
g11
tp47
a(g1
g10
g9
g5
g2
g6
g8
g3
g7
g11
g4
tp48
a(g1
g10
g9
g5
g2
g6
g8
g4
g3
g7
g11
tp49
a(g1
g10
g9
g5
g2
g6
g8
g7
g4
g3
g11
tp50
a(g1
g10
g9
g5
g2
g6
g11
g3
g7
g4
g8
tp51
a(g1
g10
g9
g5
g2
g7
g8
g3
g6
g4
g11
tp52
a(g1
g10
g9
g5
g8
g6
g4
g3
g7
g2
g11
tp53
a(g1
g10
g8
g9
g2
g6
g4
g3
g7
g5
g11
tp54
a(g1
g10
g8
g5
g2
g6
g4
g3
g7
g9
g11
tp55
a(g1
g10
g5
g3
g2
g6
g7
g8
g9
g4
g11
tp56
a(g1
g10
g5
g9
g2
g6
g4
g3
g7
g8
g11
tp57
a(g1
g10
g5
g9
g2
g6
g7
g8
g3
g4
g11
tp58
a(g1
g10
g5
g8
g2
g6
g4
g3
g7
g9
g11
tp59
a(g1
g4
g3
g9
g2
g5
g8
g6
g7
g10
g11
tp60
a(g1
g4
g3
g8
g2
g5
g6
g9
g7
g10
g11
tp61
a(g1
g4
g3
g6
g2
g9
g8
g5
g7
g10
g11
tp62
a(g1
g4
g3
g6
g2
g8
g5
g9
g7
g10
g11
tp63
a(g1
g4
g3
g11
g5
g6
g7
g9
g2
g10
g8
tp64
a(g1
g4
g3
g5
g2
g9
g8
g6
g7
g10
g11
tp65
a(g1
g4
g3
g5
g2
g8
g6
g9
g7
g10
g11
tp66
a(g1
g4
g3
g5
g2
g6
g8
g11
g7
g10
g9
tp67
a(g1
g4
g3
g5
g2
g6
g11
g9
g7
g10
g8
tp68
a(g1
g4
g3
g5
g2
g7
g8
g9
g6
g10
g11
tp69
a(g1
g4
g2
g3
g5
g6
g9
g8
g7
g10
g11
tp70
a(g1
g4
g2
g9
g5
g6
g3
g8
g7
g10
g11
tp71
a(g1
g4
g2
g11
g5
g6
g8
g3
g7
g10
g9
tp72
a(g1
g4
g9
g3
g5
g2
g8
g6
g7
g10
g11
tp73
a(g1
g4
g9
g3
g5
g6
g8
g11
g7
g10
g2
tp74
a(g1
g4
g9
g2
g5
g3
g8
g6
g7
g10
g11
tp75
a(g1
g4
g9
g2
g5
g6
g8
g11
g7
g10
g3
tp76
a(g1
g4
g9
g11
g5
g6
g8
g3
g7
g2
g10
tp77
a(g1
g4
g6
g3
g2
g5
g8
g9
g7
g10
g11
tp78
a(g1
g4
g6
g5
g2
g3
g8
g9
g7
g10
g11
tp79
a(g1
g4
g5
g6
g2
g3
g8
g9
g7
g10
g11
tp80
a(g1
g9
g3
g2
g5
g6
g7
g8
g4
g10
g11
tp81
a(g1
g9
g3
g4
g5
g6
g7
g8
g2
g10
g11
tp82
a(g1
g9
g3
g8
g2
g6
g5
g4
g7
g10
g11
tp83
a(g1
g9
g3
g5
g2
g6
g8
g7
g4
g10
g11
tp84
a(g1
g9
g3
g5
g2
g6
g7
g8
g10
g4
g11
tp85
a(g1
g9
g2
g8
g5
g6
g4
g3
g7
g10
g11
tp86
a(g1
g9
g4
g3
g2
g6
g8
g5
g7
g10
g11
tp87
a(g1
g9
g8
g2
g5
g6
g4
g3
g7
g10
g11
tp88
a(g1
g9
g5
g3
g2
g6
g8
g4
g7
g10
g11
tp89
a(g1
g8
g3
g4
g2
g6
g9
g5
g7
g10
g11
tp90
a(g1
g8
g3
g9
g2
g6
g5
g4
g7
g10
g11
tp91
a(g1
g8
g3
g5
g2
g6
g9
g4
g7
g10
g11
tp92
a(g1
g8
g2
g9
g5
g6
g4
g3
g7
g10
g11
tp93
a(g1
g8
g4
g3
g2
g6
g5
g9
g7
g10
g11
tp94
a(g1
g8
g4
g5
g2
g6
g3
g9
g7
g10
g11
tp95
a(g1
g8
g9
g3
g2
g6
g5
g10
g7
g4
g11
tp96
a(g1
g8
g9
g3
g5
g6
g2
g4
g7
g10
g11
tp97
a(g1
g8
g9
g2
g5
g6
g3
g4
g7
g10
g11
tp98
a(g1
g8
g9
g5
g2
g6
g3
g10
g7
g4
g11
tp99
a(g1
g8
g5
g4
g2
g6
g3
g9
g7
g10
g11
tp100
a(g1
g11
g9
g2
g5
g6
g8
g3
g7
g10
g4
tp101
a(g1
g11
g9
g4
g5
g6
g8
g3
g7
g10
g2
tp102
a(g1
g11
g9
g5
g2
g6
g8
g3
g7
g4
g10
tp103
a(g1
g7
g3
g4
g2
g6
g8
g5
g9
g10
g11
tp104
a(g1
g7
g3
g9
g2
g6
g8
g5
g4
g10
g11
tp105
a(g1
g7
g3
g8
g2
g6
g5
g9
g4
g10
g11
tp106
a(g1
g7
g3
g5
g2
g6
g8
g4
g9
g10
g11
tp107
a(g1
g7
g4
g5
g2
g6
g8
g9
g3
g10
g11
tp108
a(g1
g7
g9
g3
g2
g6
g8
g5
g10
g4
g11
tp109
a(g1
g7
g9
g3
g5
g6
g8
g4
g2
g10
g11
tp110
a(g1
g7
g9
g2
g5
g6
g8
g4
g3
g10
g11
tp111
a(g1
g7
g9
g5
g2
g6
g8
g10
g3
g4
g11
tp112
a(g1
g7
g5
g3
g2
g6
g8
g9
g4
g10
g11
tp113
a(g1
g7
g5
g4
g2
g6
g8
g9
g3
g10
g11
tp114
a(g1
g5
g3
g4
g2
g6
g8
g7
g9
g10
g11
tp115
a(g1
g5
g3
g9
g2
g6
g8
g7
g4
g10
g11
tp116
a(g1
g5
g3
g9
g2
g6
g7
g8
g10
g4
g11
tp117
a(g1
g5
g3
g8
g2
g6
g9
g4
g7
g10
g11
tp118
a(g1
g5
g4
g8
g2
g6
g3
g9
g7
g10
g11
tp119
a(g1
g5
g9
g3
g2
g6
g8
g7
g10
g4
g11
tp120
a(g1
g5
g9
g2
g3
g6
g8
g4
g7
g10
g11
tp121
a(g1
g5
g9
g4
g2
g6
g8
g10
g7
g3
g11
tp122
a(g1
g5
g9
g8
g2
g6
g3
g10
g7
g4
g11
tp123
a(g1
g5
g9
g6
g2
g10
g8
g3
g7
g4
g11
tp124
a(g1
g5
g8
g4
g2
g6
g3
g9
g7
g10
g11
tp125
a(g1
g5
g7
g3
g2
g6
g8
g9
g4
g10
g11
tp126
a(g1
g5
g7
g4
g2
g6
g8
g9
g3
g10
g11
tp127
a(g2
g1
g3
g5
g4
g6
g7
g8
g9
g10
g11
tp128
a(g2
g1
g4
g3
g5
g6
g7
g8
g9
g10
g11
tp129
a(g2
g1
g4
g9
g5
g6
g7
g8
g3
g10
g11
tp130
a(g2
g1
g9
g3
g8
g6
g5
g4
g7
g10
g11
tp131
a(g2
g1
g9
g3
g7
g6
g8
g5
g4
g10
g11
tp132
a(g2
g1
g9
g4
g8
g6
g3
g5
g7
g10
g11
tp133
a(g2
g1
g9
g4
g6
g5
g8
g3
g7
g10
g11
tp134
a(g2
g1
g9
g4
g7
g6
g8
g5
g3
g10
g11
tp135
a(g2
g1
g9
g4
g5
g8
g6
g3
g7
g10
g11
tp136
a(g2
g1
g9
g4
g5
g6
g11
g3
g7
g10
g8
tp137
a(g2
g1
g9
g4
g5
g6
g7
g8
g10
g3
g11
tp138
a(g2
g1
g9
g4
g5
g7
g8
g3
g6
g10
g11
tp139
a(g2
g1
g9
g8
g3
g6
g5
g4
g7
g10
g11
tp140
a(g2
g1
g9
g8
g10
g6
g4
g3
g7
g5
g11
tp141
a(g2
g1
g9
g8
g4
g6
g3
g5
g7
g10
g11
tp142
a(g2
g1
g9
g8
g5
g4
g6
g3
g7
g10
g11
tp143
a(g2
g1
g9
g8
g5
g6
g3
g7
g4
g10
g11
tp144
a(g2
g1
g9
g8
g5
g6
g4
g3
g10
g7
g11
tp145
a(g2
g1
g9
g8
g5
g6
g11
g3
g7
g10
g4
tp146
a(g2
g1
g9
g6
g4
g5
g8
g3
g7
g10
g11
tp147
a(g2
g1
g9
g6
g5
g7
g8
g3
g4
g10
g11
tp148
a(g2
g1
g9
g11
g5
g6
g7
g3
g10
g4
g8
tp149
a(g2
g1
g9
g5
g3
g6
g8
g7
g4
g10
g11
tp150
a(g2
g1
g9
g5
g3
g6
g7
g8
g10
g4
g11
tp151
a(g2
g1
g9
g5
g10
g6
g4
g3
g7
g8
g11
tp152
a(g2
g1
g9
g5
g10
g6
g7
g8
g3
g4
g11
tp153
a(g2
g1
g9
g5
g4
g6
g8
g7
g3
g10
g11
tp154
a(g2
g1
g9
g5
g8
g6
g3
g4
g7
g10
g11
tp155
a(g2
g1
g9
g5
g6
g4
g8
g3
g7
g10
g11
tp156
a(g2
g1
g9
g5
g11
g6
g8
g3
g7
g10
g4
tp157
a(g2
g1
g9
g5
g7
g6
g8
g4
g3
g10
g11
tp158
a(g2
g1
g7
g8
g5
g6
g4
g3
g9
g10
g11
tp159
a(g2
g1
g5
g9
g8
g6
g4
g3
g7
g10
g11
tp160
a(g2
g10
g9
g3
g1
g6
g7
g8
g4
g5
g11
tp161
a(g2
g10
g9
g3
g4
g6
g7
g8
g1
g5
g11
tp162
a(g2
g10
g9
g1
g3
g4
g7
g8
g6
g5
g11
tp163
a(g2
g10
g9
g1
g3
g6
g7
g8
g11
g5
g4
tp164
a(g2
g10
g9
g1
g4
g3
g7
g8
g6
g5
g11
tp165
a(g2
g10
g9
g1
g4
g6
g7
g8
g11
g5
g3
tp166
a(g2
g10
g9
g1
g4
g6
g5
g3
g11
g8
g7
tp167
a(g2
g10
g9
g1
g4
g5
g7
g8
g6
g3
g11
tp168
a(g2
g10
g9
g1
g8
g6
g11
g3
g4
g5
g7
tp169
a(g2
g10
g9
g1
g8
g6
g5
g3
g4
g11
g7
tp170
a(g2
g10
g9
g1
g8
g7
g4
g3
g6
g5
g11
tp171
a(g2
g10
g9
g1
g8
g5
g4
g3
g6
g7
g11
tp172
a(g2
g10
g9
g1
g6
g3
g7
g8
g4
g5
g11
tp173
a(g2
g10
g9
g1
g6
g4
g7
g8
g3
g5
g11
tp174
a(g2
g10
g9
g1
g6
g5
g7
g8
g4
g3
g11
tp175
a(g2
g10
g9
g1
g11
g6
g7
g8
g3
g5
g4
tp176
a(g2
g10
g9
g1
g11
g6
g7
g8
g4
g5
g3
tp177
a(g2
g10
g9
g1
g11
g6
g5
g3
g4
g8
g7
tp178
a(g2
g10
g9
g1
g7
g8
g4
g3
g6
g5
g11
tp179
a(g2
g10
g9
g1
g7
g6
g4
g3
g11
g5
g8
tp180
a(g2
g10
g9
g1
g7
g5
g4
g3
g6
g8
g11
tp181
a(g2
g10
g9
g4
g3
g6
g7
g8
g1
g5
g11
tp182
a(g2
g10
g9
g4
g1
g6
g7
g8
g3
g5
g11
tp183
a(g2
g10
g9
g8
g7
g6
g4
g3
g1
g5
g11
tp184
a(g2
g10
g9
g11
g5
g6
g7
g3
g1
g8
g4
tp185
a(g2
g10
g9
g11
g5
g6
g7
g3
g4
g8
g1
tp186
a(g2
g10
g9
g5
g1
g6
g7
g8
g4
g3
g11
tp187
a(g2
g10
g9
g5
g4
g6
g7
g8
g1
g3
g11
tp188
a(g2
g10
g9
g5
g8
g6
g4
g3
g1
g7
g11
tp189
a(g2
g10
g9
g5
g7
g6
g4
g3
g1
g8
g11
tp190
a(g2
g4
g3
g1
g8
g6
g9
g5
g11
g10
g7
tp191
a(g2
g4
g3
g1
g8
g6
g11
g5
g9
g10
g7
tp192
a(g2
g4
g3
g1
g8
g6
g5
g11
g9
g10
g7
tp193
a(g2
g4
g3
g1
g6
g7
g5
g8
g9
g10
g11
tp194
a(g2
g4
g3
g1
g7
g9
g5
g8
g6
g10
g11
tp195
a(g2
g4
g3
g1
g7
g6
g5
g8
g11
g10
g9
tp196
a(g2
g4
g3
g1
g7
g5
g9
g8
g6
g10
g11
tp197
a(g2
g4
g3
g1
g7
g5
g6
g8
g9
g10
g11
tp198
a(g2
g4
g3
g1
g5
g9
g7
g8
g11
g10
g6
tp199
a(g2
g4
g3
g1
g5
g11
g7
g8
g9
g10
g6
tp200
a(g2
g4
g3
g1
g5
g11
g7
g8
g6
g10
g9
tp201
a(g2
g4
g3
g9
g7
g6
g5
g8
g1
g10
g11
tp202
a(g2
g4
g3
g9
g5
g6
g7
g8
g11
g10
g1
tp203
a(g2
g4
g3
g6
g5
g9
g7
g8
g1
g10
g11
tp204
a(g2
g4
g3
g11
g5
g6
g7
g1
g9
g10
g8
tp205
a(g2
g4
g3
g5
g7
g6
g1
g8
g9
g10
g11
tp206
a(g2
g4
g3
g5
g7
g6
g9
g8
g1
g10
g11
tp207
a(g2
g4
g1
g9
g3
g6
g5
g8
g7
g10
g11
tp208
a(g2
g4
g1
g9
g5
g6
g8
g3
g11
g10
g7
tp209
a(g2
g4
g1
g11
g5
g6
g9
g3
g7
g10
g8
tp210
a(g2
g4
g1
g11
g5
g6
g7
g9
g3
g10
g8
tp211
a(g2
g4
g1
g5
g3
g6
g9
g8
g7
g10
g11
tp212
a(g2
g4
g9
g3
g1
g5
g8
g6
g7
g10
g11
tp213
a(g2
g4
g9
g3
g10
g6
g1
g8
g7
g5
g11
tp214
a(g2
g4
g9
g3
g6
g5
g8
g1
g7
g10
g11
tp215
a(g2
g4
g9
g3
g11
g6
g8
g5
g7
g10
g1
tp216
a(g2
g4
g9
g3
g5
g8
g1
g6
g7
g10
g11
tp217
a(g2
g4
g9
g3
g5
g8
g6
g1
g7
g10
g11
tp218
a(g2
g4
g9
g3
g5
g6
g1
g8
g10
g7
g11
tp219
a(g2
g4
g9
g3
g5
g6
g1
g11
g7
g10
g8
tp220
a(g2
g4
g9
g3
g5
g6
g8
g7
g11
g10
g1
tp221
a(g2
g4
g9
g3
g5
g6
g11
g1
g7
g10
g8
tp222
a(g2
g4
g9
g3
g5
g7
g8
g1
g6
g10
g11
tp223
a(g2
g4
g9
g3
g5
g7
g8
g6
g1
g10
g11
tp224
a(g2
g4
g9
g1
g3
g10
g6
g8
g7
g5
g11
tp225
a(g2
g4
g9
g1
g3
g6
g8
g10
g11
g5
g7
tp226
a(g2
g4
g9
g1
g3
g6
g8
g11
g10
g5
g7
tp227
a(g2
g4
g9
g1
g3
g6
g8
g5
g10
g11
g7
tp228
a(g2
g4
g9
g1
g3
g6
g11
g8
g7
g5
g10
tp229
a(g2
g4
g9
g1
g3
g6
g5
g8
g7
g11
g10
tp230
a(g2
g4
g9
g1
g3
g11
g8
g5
g7
g10
g6
tp231
a(g2
g4
g9
g1
g3
g5
g8
g11
g7
g10
g6
tp232
a(g2
g4
g9
g1
g10
g3
g6
g8
g7
g5
g11
tp233
a(g2
g4
g9
g1
g10
g6
g8
g11
g3
g5
g7
tp234
a(g2
g4
g9
g1
g10
g6
g8
g5
g3
g11
g7
tp235
a(g2
g4
g9
g1
g10
g6
g8
g5
g11
g3
g7
tp236
a(g2
g4
g9
g1
g10
g6
g11
g8
g7
g5
g3
tp237
a(g2
g4
g9
g1
g10
g6
g5
g8
g7
g11
g3
tp238
a(g2
g4
g9
g1
g10
g5
g6
g8
g7
g3
g11
tp239
a(g2
g4
g9
g1
g6
g10
g3
g8
g7
g5
g11
tp240
a(g2
g4
g9
g1
g6
g10
g5
g8
g7
g3
g11
tp241
a(g2
g4
g9
g1
g6
g11
g8
g5
g7
g10
g3
tp242
a(g2
g4
g9
g1
g6
g5
g8
g11
g7
g10
g3
tp243
a(g2
g4
g9
g1
g11
g3
g8
g5
g7
g10
g6
tp244
a(g2
g4
g9
g1
g11
g6
g3
g8
g7
g5
g10
tp245
a(g2
g4
g9
g1
g11
g6
g8
g10
g3
g5
g7
tp246
a(g2
g4
g9
g1
g11
g6
g8
g5
g10
g3
g7
tp247
a(g2
g4
g9
g1
g11
g6
g5
g8
g7
g3
g10
tp248
a(g2
g4
g9
g1
g11
g5
g8
g6
g7
g10
g3
tp249
a(g2
g4
g9
g1
g5
g3
g8
g7
g11
g10
g6
tp250
a(g2
g4
g9
g1
g5
g3
g6
g8
g10
g7
g11
tp251
a(g2
g4
g9
g1
g5
g3
g6
g11
g7
g10
g8
tp252
a(g2
g4
g9
g1
g5
g3
g11
g6
g7
g10
g8
tp253
a(g2
g4
g9
g1
g5
g10
g3
g8
g6
g7
g11
tp254
a(g2
g4
g9
g1
g5
g10
g8
g3
g6
g11
g7
tp255
a(g2
g4
g9
g1
g5
g10
g6
g8
g3
g7
g11
tp256
a(g2
g4
g9
g1
g5
g8
g3
g11
g7
g10
g6
tp257
a(g2
g4
g9
g1
g5
g8
g6
g11
g7
g10
g3
tp258
a(g2
g4
g9
g1
g5
g8
g11
g6
g7
g10
g3
tp259
a(g2
g4
g9
g1
g5
g6
g3
g10
g11
g8
g7
tp260
a(g2
g4
g9
g1
g5
g6
g3
g8
g11
g7
g10
tp261
a(g2
g4
g9
g1
g5
g6
g3
g11
g10
g8
g7
tp262
a(g2
g4
g9
g1
g5
g6
g11
g10
g3
g8
g7
tp263
a(g2
g4
g9
g1
g5
g6
g11
g8
g3
g7
g10
tp264
a(g2
g4
g9
g1
g5
g6
g11
g8
g10
g7
g3
tp265
a(g2
g4
g9
g1
g5
g11
g3
g6
g7
g10
g8
tp266
a(g2
g4
g9
g1
g5
g11
g8
g7
g3
g10
g6
tp267
a(g2
g4
g9
g1
g5
g11
g8
g7
g6
g10
g3
tp268
a(g2
g4
g9
g1
g5
g7
g8
g6
g11
g10
g3
tp269
a(g2
g4
g9
g1
g5
g7
g8
g11
g3
g10
g6
tp270
a(g2
g4
g9
g1
g5
g7
g8
g11
g6
g10
g3
tp271
a(g2
g4
g9
g1
g5
g7
g6
g8
g10
g3
g11
tp272
a(g2
g4
g9
g8
g5
g3
g1
g6
g7
g10
g11
tp273
a(g2
g4
g9
g8
g5
g3
g6
g1
g7
g10
g11
tp274
a(g2
g4
g9
g8
g5
g6
g3
g11
g7
g10
g1
tp275
a(g2
g4
g9
g8
g5
g6
g1
g11
g7
g10
g3
tp276
a(g2
g4
g9
g8
g5
g6
g11
g1
g7
g10
g3
tp277
a(g2
g4
g9
g6
g3
g5
g8
g1
g7
g10
g11
tp278
a(g2
g4
g9
g6
g1
g3
g8
g5
g7
g10
g11
tp279
a(g2
g4
g9
g6
g5
g3
g8
g7
g1
g10
g11
tp280
a(g2
g4
g9
g6
g5
g8
g3
g1
g7
g10
g11
tp281
a(g2
g4
g9
g6
g5
g11
g8
g3
g7
g10
g1
tp282
a(g2
g4
g9
g6
g5
g7
g8
g1
g3
g10
g11
tp283
a(g2
g4
g9
g11
g1
g6
g8
g3
g7
g5
g10
tp284
a(g2
g4
g9
g11
g10
g6
g8
g3
g7
g5
g1
tp285
a(g2
g4
g9
g11
g5
g6
g1
g3
g7
g8
g10
tp286
a(g2
g4
g9
g11
g5
g6
g8
g3
g1
g7
g10
tp287
a(g2
g4
g9
g11
g5
g6
g8
g3
g10
g7
g1
tp288
a(g2
g4
g9
g5
g3
g6
g8
g11
g7
g10
g1
tp289
a(g2
g4
g9
g5
g1
g3
g8
g6
g7
g10
g11
tp290
a(g2
g4
g9
g5
g1
g6
g8
g11
g7
g10
g3
tp291
a(g2
g4
g9
g5
g10
g6
g1
g8
g7
g3
g11
tp292
a(g2
g4
g9
g5
g6
g3
g8
g1
g7
g10
g11
tp293
a(g2
g4
g9
g5
g11
g6
g8
g1
g7
g10
g3
tp294
a(g2
g4
g8
g1
g3
g6
g5
g9
g11
g10
g7
tp295
a(g2
g4
g8
g1
g11
g6
g5
g9
g3
g10
g7
tp296
a(g2
g4
g8
g1
g5
g6
g3
g11
g9
g10
g7
tp297
a(g2
g4
g8
g1
g5
g6
g9
g11
g3
g10
g7
tp298
a(g2
g4
g8
g11
g5
g6
g1
g3
g7
g10
g9
tp299
a(g2
g4
g8
g11
g5
g6
g9
g3
g7
g10
g1
tp300
a(g2
g4
g8
g11
g5
g6
g7
g9
g3
g10
g1
tp301
a(g2
g4
g8
g11
g5
g6
g7
g9
g1
g10
g3
tp302
a(g2
g4
g6
g1
g3
g9
g5
g8
g7
g10
g11
tp303
a(g2
g4
g6
g1
g3
g5
g9
g8
g7
g10
g11
tp304
a(g2
g4
g6
g1
g5
g9
g8
g3
g11
g10
g7
tp305
a(g2
g4
g6
g1
g5
g11
g8
g3
g9
g10
g7
tp306
a(g2
g4
g6
g1
g5
g7
g3
g8
g9
g10
g11
tp307
a(g2
g4
g6
g1
g5
g7
g9
g8
g3
g10
g11
tp308
a(g2
g4
g7
g3
g5
g6
g1
g8
g9
g10
g11
tp309
a(g2
g4
g7
g3
g5
g6
g9
g8
g1
g10
g11
tp310
a(g2
g4
g7
g1
g5
g3
g9
g8
g6
g10
g11
tp311
a(g2
g4
g7
g1
g5
g3
g6
g8
g9
g10
g11
tp312
a(g2
g4
g7
g1
g5
g9
g3
g8
g6
g10
g11
tp313
a(g2
g4
g7
g1
g5
g9
g6
g8
g3
g10
g11
tp314
a(g2
g4
g7
g1
g5
g6
g3
g8
g11
g10
g9
tp315
a(g2
g4
g7
g1
g5
g6
g9
g8
g11
g10
g3
tp316
a(g2
g4
g7
g1
g5
g6
g11
g8
g3
g10
g9
tp317
a(g2
g4
g7
g1
g5
g6
g11
g8
g9
g10
g3
tp318
a(g2
g4
g7
g9
g5
g6
g3
g8
g1
g10
g11
tp319
a(g2
g4
g7
g9
g5
g6
g1
g8
g3
g10
g11
tp320
a(g2
g4
g7
g11
g5
g6
g8
g3
g1
g10
g9
tp321
a(g2
g4
g7
g11
g5
g6
g8
g3
g9
g10
g1
tp322
a(g2
g4
g5
g3
g1
g6
g9
g8
g7
g10
g11
tp323
a(g2
g4
g5
g1
g3
g9
g6
g8
g7
g10
g11
tp324
a(g2
g4
g5
g1
g3
g6
g8
g11
g9
g10
g7
tp325
a(g2
g4
g5
g1
g3
g6
g11
g8
g7
g10
g9
tp326
a(g2
g4
g5
g1
g8
g6
g3
g9
g11
g10
g7
tp327
a(g2
g4
g5
g1
g8
g6
g11
g9
g3
g10
g7
tp328
a(g2
g4
g5
g1
g6
g3
g9
g8
g7
g10
g11
tp329
a(g2
g4
g5
g1
g6
g9
g3
g8
g7
g10
g11
tp330
a(g2
g4
g5
g1
g11
g6
g3
g8
g7
g10
g9
tp331
a(g2
g4
g5
g1
g11
g6
g9
g8
g7
g10
g3
tp332
a(g2
g4
g5
g9
g3
g6
g1
g8
g7
g10
g11
tp333
a(g2
g4
g5
g9
g1
g6
g3
g8
g7
g10
g11
tp334
a(g2
g4
g5
g11
g1
g6
g8
g3
g7
g10
g9
tp335
a(g2
g9
g3
g1
g4
g5
g7
g8
g6
g10
g11
tp336
a(g2
g9
g3
g1
g6
g5
g7
g8
g4
g10
g11
tp337
a(g2
g9
g3
g5
g1
g6
g7
g8
g4
g10
g11
tp338
a(g2
g9
g3
g5
g4
g6
g7
g8
g1
g10
g11
tp339
a(g2
g9
g1
g3
g5
g6
g7
g8
g4
g10
g11
tp340
a(g2
g9
g1
g4
g5
g6
g7
g8
g3
g10
g11
tp341
a(g2
g9
g1
g5
g8
g6
g4
g3
g7
g10
g11
tp342
a(g2
g9
g4
g3
g5
g6
g7
g8
g1
g10
g11
tp343
a(g2
g9
g4
g1
g7
g6
g5
g8
g3
g10
g11
tp344
a(g2
g9
g4
g1
g5
g3
g7
g8
g6
g10
g11
tp345
a(g2
g9
g4
g1
g5
g6
g7
g8
g11
g10
g3
tp346
a(g2
g9
g8
g1
g6
g5
g4
g3
g7
g10
g11
tp347
a(g2
g9
g8
g1
g7
g6
g4
g5
g3
g10
g11
tp348
a(g2
g9
g8
g1
g5
g6
g11
g3
g4
g10
g7
tp349
a(g2
g9
g8
g1
g5
g7
g4
g3
g6
g10
g11
tp350
a(g2
g9
g8
g5
g1
g6
g4
g3
g7
g10
g11
tp351
a(g2
g9
g6
g1
g8
g5
g4
g3
g7
g10
g11
tp352
a(g2
g9
g6
g1
g5
g3
g7
g8
g4
g10
g11
tp353
a(g2
g9
g6
g1
g5
g4
g7
g8
g3
g10
g11
tp354
a(g2
g9
g7
g1
g3
g6
g5
g8
g4
g10
g11
tp355
a(g2
g9
g7
g1
g4
g6
g5
g8
g3
g10
g11
tp356
a(g2
g9
g7
g1
g8
g6
g4
g5
g3
g10
g11
tp357
a(g2
g9
g7
g1
g5
g8
g4
g3
g6
g10
g11
tp358
a(g2
g9
g7
g1
g5
g6
g4
g3
g11
g10
g8
tp359
a(g2
g9
g7
g8
g5
g6
g4
g3
g1
g10
g11
tp360
a(g2
g9
g5
g1
g4
g6
g8
g3
g11
g10
g7
tp361
a(g2
g9
g5
g1
g8
g6
g4
g7
g3
g10
g11
tp362
a(g2
g9
g5
g1
g6
g8
g4
g3
g7
g10
g11
tp363
a(g2
g9
g5
g1
g11
g6
g4
g3
g7
g10
g8
tp364
a(g2
g9
g5
g1
g11
g6
g8
g3
g4
g10
g7
tp365
a(g2
g9
g5
g1
g7
g6
g3
g8
g4
g10
g11
tp366
a(g2
g9
g5
g8
g1
g6
g4
g3
g7
g10
g11
tp367
a(g2
g8
g4
g1
g5
g6
g9
g3
g11
g10
g7
tp368
a(g2
g8
g4
g1
g5
g6
g11
g3
g9
g10
g7
tp369
a(g2
g8
g9
g3
g1
g6
g5
g4
g7
g10
g11
tp370
a(g2
g8
g9
g3
g4
g6
g1
g5
g7
g10
g11
tp371
a(g2
g8
g9
g3
g4
g6
g5
g1
g7
g10
g11
tp372
a(g2
g8
g9
g3
g5
g6
g1
g7
g4
g10
g11
tp373
a(g2
g8
g9
g1
g3
g4
g6
g5
g7
g10
g11
tp374
a(g2
g8
g9
g1
g3
g4
g5
g6
g7
g10
g11
tp375
a(g2
g8
g9
g1
g3
g6
g4
g7
g10
g5
g11
tp376
a(g2
g8
g9
g1
g3
g6
g4
g5
g10
g7
g11
tp377
a(g2
g8
g9
g1
g3
g6
g11
g5
g7
g10
g4
tp378
a(g2
g8
g9
g1
g3
g6
g5
g11
g7
g10
g4
tp379
a(g2
g8
g9
g1
g3
g5
g6
g4
g7
g10
g11
tp380
a(g2
g8
g9
g1
g10
g6
g4
g7
g3
g5
g11
tp381
a(g2
g8
g9
g1
g10
g6
g4
g5
g3
g7
g11
tp382
a(g2
g8
g9
g1
g10
g6
g5
g3
g11
g4
g7
tp383
a(g2
g8
g9
g1
g4
g3
g6
g5
g7
g10
g11
tp384
a(g2
g8
g9
g1
g4
g3
g5
g6
g7
g10
g11
tp385
a(g2
g8
g9
g1
g4
g6
g11
g5
g7
g10
g3
tp386
a(g2
g8
g9
g1
g4
g6
g5
g11
g7
g10
g3
tp387
a(g2
g8
g9
g1
g4
g5
g3
g6
g7
g10
g11
tp388
a(g2
g8
g9
g1
g6
g3
g5
g4
g7
g10
g11
tp389
a(g2
g8
g9
g1
g6
g10
g4
g3
g7
g5
g11
tp390
a(g2
g8
g9
g1
g6
g4
g3
g5
g7
g10
g11
tp391
a(g2
g8
g9
g1
g6
g5
g3
g4
g7
g10
g11
tp392
a(g2
g8
g9
g1
g11
g6
g3
g5
g7
g10
g4
tp393
a(g2
g8
g9
g1
g11
g6
g4
g3
g7
g5
g10
tp394
a(g2
g8
g9
g1
g11
g6
g5
g3
g10
g4
g7
tp395
a(g2
g8
g9
g1
g11
g6
g5
g4
g7
g10
g3
tp396
a(g2
g8
g9
g1
g7
g6
g4
g10
g3
g5
g11
tp397
a(g2
g8
g9
g1
g7
g6
g4
g5
g10
g3
g11
tp398
a(g2
g8
g9
g1
g5
g3
g6
g7
g4
g10
g11
tp399
a(g2
g8
g9
g1
g5
g10
g4
g3
g6
g7
g11
tp400
a(g2
g8
g9
g1
g5
g4
g3
g7
g6
g10
g11
tp401
a(g2
g8
g9
g1
g5
g4
g6
g7
g3
g10
g11
tp402
a(g2
g8
g9
g1
g5
g4
g11
g3
g7
g10
g6
tp403
a(g2
g8
g9
g1
g5
g6
g3
g7
g11
g10
g4
tp404
a(g2
g8
g9
g1
g5
g6
g4
g3
g11
g7
g10
tp405
a(g2
g8
g9
g1
g5
g6
g11
g7
g3
g10
g4
tp406
a(g2
g8
g9
g1
g5
g6
g11
g7
g4
g10
g3
tp407
a(g2
g8
g9
g1
g5
g11
g6
g3
g7
g10
g4
tp408
a(g2
g8
g9
g1
g5
g7
g3
g4
g6
g10
g11
tp409
a(g2
g8
g9
g1
g5
g7
g3
g6
g4
g10
g11
tp410
a(g2
g8
g9
g1
g5
g7
g6
g4
g3
g10
g11
tp411
a(g2
g8
g9
g4
g3
g6
g1
g5
g7
g10
g11
tp412
a(g2
g8
g9
g4
g3
g6
g5
g1
g7
g10
g11
tp413
a(g2
g8
g9
g4
g1
g6
g3
g5
g7
g10
g11
tp414
a(g2
g8
g9
g4
g5
g6
g3
g7
g1
g10
g11
tp415
a(g2
g8
g9
g4
g5
g6
g1
g7
g3
g10
g11
tp416
a(g2
g8
g9
g4
g5
g6
g11
g3
g7
g10
g1
tp417
a(g2
g8
g9
g6
g5
g4
g1
g3
g7
g10
g11
tp418
a(g2
g8
g9
g11
g5
g6
g7
g3
g1
g4
g10
tp419
a(g2
g8
g9
g11
g5
g6
g7
g3
g10
g4
g1
tp420
a(g2
g8
g9
g5
g3
g6
g1
g4
g7
g10
g11
tp421
a(g2
g8
g9
g5
g1
g6
g3
g4
g7
g10
g11
tp422
a(g2
g8
g9
g5
g4
g6
g3
g1
g7
g10
g11
tp423
a(g2
g8
g6
g1
g5
g7
g4
g3
g9
g10
g11
tp424
a(g2
g8
g7
g1
g3
g6
g4
g5
g9
g10
g11
tp425
a(g2
g8
g7
g1
g5
g9
g4
g3
g6
g10
g11
tp426
a(g2
g8
g7
g1
g5
g6
g4
g3
g11
g10
g9
tp427
a(g2
g8
g7
g9
g5
g6
g4
g3
g1
g10
g11
tp428
a(g2
g8
g5
g1
g3
g6
g4
g7
g9
g10
g11
tp429
a(g2
g8
g5
g1
g6
g9
g4
g3
g7
g10
g11
tp430
a(g2
g8
g5
g1
g11
g6
g4
g3
g7
g10
g9
tp431
a(g2
g8
g5
g9
g1
g6
g4
g3
g7
g10
g11
tp432
a(g2
g6
g3
g1
g4
g8
g7
g5
g9
g10
g11
tp433
a(g2
g6
g3
g1
g8
g4
g7
g5
g9
g10
g11
tp434
a(g2
g6
g3
g1
g8
g9
g7
g5
g4
g10
g11
tp435
a(g2
g6
g3
g1
g8
g5
g7
g4
g9
g10
g11
tp436
a(g2
g6
g4
g1
g8
g9
g5
g3
g7
g10
g11
tp437
a(g2
g6
g4
g1
g8
g5
g9
g3
g7
g10
g11
tp438
a(g2
g6
g4
g1
g8
g5
g7
g9
g3
g10
g11
tp439
a(g2
g6
g4
g1
g7
g5
g8
g3
g9
g10
g11
tp440
a(g2
g6
g9
g1
g3
g8
g7
g5
g10
g4
g11
tp441
a(g2
g6
g9
g1
g10
g4
g5
g3
g7
g8
g11
tp442
a(g2
g6
g9
g1
g10
g8
g7
g5
g3
g4
g11
tp443
a(g2
g6
g9
g1
g10
g7
g8
g3
g4
g5
g11
tp444
a(g2
g6
g9
g1
g10
g5
g8
g3
g4
g7
g11
tp445
a(g2
g6
g9
g1
g4
g10
g5
g3
g7
g8
g11
tp446
a(g2
g6
g9
g1
g4
g7
g8
g3
g10
g5
g11
tp447
a(g2
g6
g9
g1
g4
g5
g8
g3
g10
g7
g11
tp448
a(g2
g6
g9
g1
g8
g3
g7
g5
g10
g4
g11
tp449
a(g2
g6
g9
g1
g8
g10
g7
g5
g3
g4
g11
tp450
a(g2
g6
g9
g1
g8
g7
g5
g3
g10
g4
g11
tp451
a(g2
g6
g9
g1
g8
g5
g7
g10
g3
g4
g11
tp452
a(g2
g6
g9
g1
g7
g10
g8
g3
g4
g5
g11
tp453
a(g2
g6
g9
g1
g7
g4
g8
g3
g10
g5
g11
tp454
a(g2
g6
g9
g1
g7
g8
g5
g3
g10
g4
g11
tp455
a(g2
g6
g9
g1
g5
g3
g7
g10
g4
g8
g11
tp456
a(g2
g6
g9
g1
g5
g3
g7
g4
g10
g8
g11
tp457
a(g2
g6
g9
g1
g5
g10
g7
g3
g11
g4
g8
tp458
a(g2
g6
g9
g1
g5
g10
g7
g4
g3
g8
g11
tp459
a(g2
g6
g9
g1
g5
g4
g7
g10
g3
g8
g11
tp460
a(g2
g6
g9
g1
g5
g8
g7
g3
g11
g4
g10
tp461
a(g2
g6
g9
g1
g5
g8
g7
g10
g4
g3
g11
tp462
a(g2
g6
g9
g1
g5
g8
g7
g4
g10
g3
g11
tp463
a(g2
g6
g9
g1
g5
g11
g7
g3
g10
g4
g8
tp464
a(g2
g6
g9
g8
g5
g10
g7
g3
g1
g4
g11
tp465
a(g2
g6
g8
g1
g3
g5
g7
g9
g4
g10
g11
tp466
a(g2
g6
g8
g1
g4
g9
g5
g3
g7
g10
g11
tp467
a(g2
g6
g8
g1
g4
g5
g9
g3
g7
g10
g11
tp468
a(g2
g6
g8
g1
g4
g5
g7
g9
g3
g10
g11
tp469
a(g2
g6
g8
g1
g5
g3
g7
g4
g9
g10
g11
tp470
a(g2
g6
g8
g1
g5
g9
g7
g4
g3
g10
g11
tp471
a(g2
g6
g8
g1
g5
g7
g9
g3
g4
g10
g11
tp472
a(g2
g6
g7
g1
g4
g5
g8
g3
g9
g10
g11
tp473
a(g2
g6
g7
g1
g5
g8
g9
g3
g4
g10
g11
tp474
a(g2
g6
g5
g1
g3
g8
g7
g9
g4
g10
g11
tp475
a(g2
g6
g5
g1
g4
g8
g9
g3
g7
g10
g11
tp476
a(g2
g6
g5
g1
g4
g8
g7
g9
g3
g10
g11
tp477
a(g2
g6
g5
g1
g4
g7
g8
g3
g9
g10
g11
tp478
a(g2
g6
g5
g1
g8
g3
g7
g9
g4
g10
g11
tp479
a(g2
g6
g5
g1
g8
g4
g9
g3
g7
g10
g11
tp480
a(g2
g6
g5
g1
g8
g4
g7
g9
g3
g10
g11
tp481
a(g2
g6
g5
g1
g7
g4
g8
g3
g9
g10
g11
tp482
a(g2
g6
g5
g1
g7
g9
g8
g3
g4
g10
g11
tp483
a(g2
g11
g4
g1
g5
g6
g7
g8
g3
g10
g9
tp484
a(g2
g11
g4
g1
g5
g6
g7
g8
g9
g10
g3
tp485
a(g2
g11
g9
g1
g3
g6
g5
g4
g7
g10
g8
tp486
a(g2
g11
g9
g1
g10
g6
g4
g3
g7
g5
g8
tp487
a(g2
g11
g9
g1
g10
g6
g8
g3
g4
g5
g7
tp488
a(g2
g11
g9
g1
g4
g6
g3
g5
g7
g10
g8
tp489
a(g2
g11
g9
g1
g4
g6
g8
g3
g10
g5
g7
tp490
a(g2
g11
g9
g1
g4
g5
g8
g3
g7
g10
g6
tp491
a(g2
g11
g9
g1
g8
g6
g3
g5
g7
g10
g4
tp492
a(g2
g11
g9
g1
g8
g6
g4
g3
g7
g5
g10
tp493
a(g2
g11
g9
g1
g8
g6
g5
g3
g10
g4
g7
tp494
a(g2
g11
g9
g1
g8
g6
g5
g4
g7
g10
g3
tp495
a(g2
g11
g9
g1
g6
g5
g8
g3
g7
g10
g4
tp496
a(g2
g11
g9
g1
g7
g6
g8
g5
g3
g10
g4
tp497
a(g2
g11
g9
g1
g7
g6
g8
g5
g4
g10
g3
tp498
a(g2
g11
g9
g1
g5
g4
g6
g3
g7
g10
g8
tp499
a(g2
g11
g9
g1
g5
g8
g6
g3
g7
g10
g4
tp500
a(g2
g11
g9
g1
g5
g6
g3
g7
g4
g10
g8
tp501
a(g2
g11
g9
g1
g5
g6
g4
g3
g10
g7
g8
tp502
a(g2
g11
g9
g1
g5
g6
g7
g8
g10
g3
g4
tp503
a(g2
g11
g9
g1
g5
g6
g7
g8
g4
g3
g10
tp504
a(g2
g11
g9
g1
g5
g7
g8
g3
g4
g10
g6
tp505
a(g2
g11
g9
g1
g5
g7
g8
g3
g6
g10
g4
tp506
a(g2
g11
g9
g4
g5
g6
g1
g3
g7
g10
g8
tp507
a(g2
g11
g9
g8
g5
g6
g1
g3
g7
g10
g4
tp508
a(g2
g11
g9
g5
g1
g6
g8
g3
g7
g10
g4
tp509
a(g2
g11
g9
g5
g4
g6
g8
g3
g7
g10
g1
tp510
a(g2
g11
g8
g1
g5
g6
g9
g3
g4
g10
g7
tp511
a(g2
g11
g7
g1
g5
g6
g4
g3
g9
g10
g8
tp512
a(g2
g11
g5
g1
g4
g6
g8
g3
g9
g10
g7
tp513
a(g2
g11
g5
g1
g8
g6
g4
g3
g7
g10
g9
tp514
a(g2
g7
g1
g8
g5
g6
g4
g3
g9
g10
g11
tp515
a(g2
g7
g4
g1
g3
g6
g5
g8
g9
g10
g11
tp516
a(g2
g7
g9
g3
g1
g6
g8
g5
g4
g10
g11
tp517
a(g2
g7
g9
g3
g4
g6
g8
g5
g1
g10
g11
tp518
a(g2
g7
g9
g1
g3
g4
g8
g5
g6
g10
g11
tp519
a(g2
g7
g9
g1
g3
g6
g4
g5
g10
g8
g11
tp520
a(g2
g7
g9
g1
g3
g6
g8
g5
g11
g10
g4
tp521
a(g2
g7
g9
g1
g3
g5
g8
g4
g6
g10
g11
tp522
a(g2
g7
g9
g1
g3
g5
g8
g6
g4
g10
g11
tp523
a(g2
g7
g9
g1
g10
g6
g3
g8
g4
g5
g11
tp524
a(g2
g7
g9
g1
g10
g6
g4
g5
g3
g8
g11
tp525
a(g2
g7
g9
g1
g10
g6
g5
g8
g4
g3
g11
tp526
a(g2
g7
g9
g1
g4
g3
g8
g5
g6
g10
g11
tp527
a(g2
g7
g9
g1
g4
g6
g3
g8
g10
g5
g11
tp528
a(g2
g7
g9
g1
g4
g6
g8
g5
g11
g10
g3
tp529
a(g2
g7
g9
g1
g4
g6
g5
g8
g10
g3
g11
tp530
a(g2
g7
g9
g1
g4
g5
g8
g6
g3
g10
g11
tp531
a(g2
g7
g9
g1
g8
g6
g4
g10
g3
g5
g11
tp532
a(g2
g7
g9
g1
g8
g6
g4
g5
g10
g3
g11
tp533
a(g2
g7
g9
g1
g6
g3
g8
g5
g4
g10
g11
tp534
a(g2
g7
g9
g1
g6
g4
g8
g5
g3
g10
g11
tp535
a(g2
g7
g9
g1
g6
g5
g8
g4
g3
g10
g11
tp536
a(g2
g7
g9
g1
g11
g6
g8
g5
g3
g10
g4
tp537
a(g2
g7
g9
g1
g11
g6
g8
g5
g4
g10
g3
tp538
a(g2
g7
g9
g1
g5
g10
g4
g3
g6
g8
g11
tp539
a(g2
g7
g9
g1
g5
g4
g8
g3
g11
g10
g6
tp540
a(g2
g7
g9
g1
g5
g8
g3
g4
g6
g10
g11
tp541
a(g2
g7
g9
g1
g5
g8
g3
g6
g4
g10
g11
tp542
a(g2
g7
g9
g1
g5
g8
g6
g4
g3
g10
g11
tp543
a(g2
g7
g9
g1
g5
g6
g3
g4
g11
g10
g8
tp544
a(g2
g7
g9
g1
g5
g6
g3
g11
g4
g10
g8
tp545
a(g2
g7
g9
g1
g5
g6
g4
g3
g10
g11
g8
tp546
a(g2
g7
g9
g1
g5
g6
g4
g3
g11
g8
g10
tp547
a(g2
g7
g9
g1
g5
g6
g11
g4
g3
g10
g8
tp548
a(g2
g7
g9
g1
g5
g11
g8
g3
g4
g10
g6
tp549
a(g2
g7
g9
g1
g5
g11
g8
g3
g6
g10
g4
tp550
a(g2
g7
g9
g4
g3
g6
g8
g5
g1
g10
g11
tp551
a(g2
g7
g9
g4
g1
g6
g8
g5
g3
g10
g11
tp552
a(g2
g7
g9
g4
g5
g6
g8
g3
g11
g10
g1
tp553
a(g2
g7
g9
g8
g5
g6
g3
g1
g4
g10
g11
tp554
a(g2
g7
g9
g8
g5
g6
g3
g4
g1
g10
g11
tp555
a(g2
g7
g9
g8
g5
g6
g1
g4
g3
g10
g11
tp556
a(g2
g7
g9
g6
g5
g4
g8
g3
g1
g10
g11
tp557
a(g2
g7
g9
g5
g3
g6
g8
g1
g4
g10
g11
tp558
a(g2
g7
g9
g5
g3
g6
g8
g4
g1
g10
g11
tp559
a(g2
g7
g9
g5
g1
g6
g8
g4
g3
g10
g11
tp560
a(g2
g7
g9
g5
g4
g6
g8
g1
g3
g10
g11
tp561
a(g2
g7
g8
g1
g3
g6
g4
g5
g9
g10
g11
tp562
a(g2
g7
g8
g1
g5
g9
g4
g3
g6
g10
g11
tp563
a(g2
g7
g8
g1
g5
g6
g4
g3
g11
g10
g9
tp564
a(g2
g7
g8
g9
g5
g6
g4
g3
g1
g10
g11
tp565
a(g2
g7
g6
g1
g5
g8
g4
g3
g9
g10
g11
tp566
a(g2
g7
g5
g1
g3
g6
g9
g8
g4
g10
g11
tp567
a(g2
g7
g5
g1
g4
g6
g3
g8
g9
g10
g11
tp568
a(g2
g7
g5
g1
g4
g6
g9
g8
g3
g10
g11
tp569
a(g2
g5
g3
g1
g4
g9
g7
g8
g6
g10
g11
tp570
a(g2
g5
g3
g1
g4
g6
g7
g8
g11
g10
g9
tp571
a(g2
g5
g3
g1
g6
g4
g7
g8
g9
g10
g11
tp572
a(g2
g5
g3
g1
g6
g9
g7
g8
g4
g10
g11
tp573
a(g2
g5
g3
g1
g11
g6
g7
g8
g4
g10
g9
tp574
a(g2
g5
g3
g1
g11
g6
g7
g8
g9
g10
g4
tp575
a(g2
g5
g3
g4
g1
g6
g7
g8
g9
g10
g11
tp576
a(g2
g5
g3
g9
g1
g6
g7
g8
g4
g10
g11
tp577
a(g2
g5
g3
g9
g4
g6
g7
g8
g1
g10
g11
tp578
a(g2
g5
g1
g9
g8
g6
g4
g3
g7
g10
g11
tp579
a(g2
g5
g4
g1
g11
g6
g8
g3
g9
g10
g7
tp580
a(g2
g5
g4
g1
g7
g6
g3
g8
g9
g10
g11
tp581
a(g2
g5
g4
g1
g7
g6
g9
g8
g3
g10
g11
tp582
a(g2
g5
g9
g3
g1
g6
g8
g7
g4
g10
g11
tp583
a(g2
g5
g9
g3
g1
g6
g7
g8
g10
g4
g11
tp584
a(g2
g5
g9
g3
g10
g6
g7
g8
g1
g4
g11
tp585
a(g2
g5
g9
g3
g4
g6
g8
g7
g1
g10
g11
tp586
a(g2
g5
g9
g3
g8
g6
g1
g4
g7
g10
g11
tp587
a(g2
g5
g9
g3
g7
g6
g8
g1
g4
g10
g11
tp588
a(g2
g5
g9
g3
g7
g6
g8
g4
g1
g10
g11
tp589
a(g2
g5
g9
g1
g3
g10
g7
g8
g6
g4
g11
tp590
a(g2
g5
g9
g1
g3
g4
g8
g7
g6
g10
g11
tp591
a(g2
g5
g9
g1
g3
g8
g6
g4
g7
g10
g11
tp592
a(g2
g5
g9
g1
g3
g6
g4
g7
g10
g8
g11
tp593
a(g2
g5
g9
g1
g3
g6
g8
g7
g11
g10
g4
tp594
a(g2
g5
g9
g1
g3
g6
g11
g4
g7
g10
g8
tp595
a(g2
g5
g9
g1
g3
g6
g7
g8
g11
g4
g10
tp596
a(g2
g5
g9
g1
g3
g7
g8
g4
g6
g10
g11
tp597
a(g2
g5
g9
g1
g3
g7
g8
g6
g4
g10
g11
tp598
a(g2
g5
g9
g1
g10
g3
g7
g8
g6
g4
g11
tp599
a(g2
g5
g9
g1
g10
g6
g3
g8
g4
g7
g11
tp600
a(g2
g5
g9
g1
g10
g6
g4
g3
g7
g11
g8
tp601
a(g2
g5
g9
g1
g10
g6
g4
g7
g3
g8
g11
tp602
a(g2
g5
g9
g1
g10
g6
g8
g3
g4
g11
g7
tp603
a(g2
g5
g9
g1
g10
g6
g7
g8
g11
g4
g3
tp604
a(g2
g5
g9
g1
g4
g3
g8
g7
g6
g10
g11
tp605
a(g2
g5
g9
g1
g4
g8
g3
g6
g7
g10
g11
tp606
a(g2
g5
g9
g1
g4
g6
g3
g8
g10
g7
g11
tp607
a(g2
g5
g9
g1
g4
g6
g3
g11
g7
g10
g8
tp608
a(g2
g5
g9
g1
g4
g6
g8
g3
g10
g11
g7
tp609
a(g2
g5
g9
g1
g4
g6
g8
g7
g11
g10
g3
tp610
a(g2
g5
g9
g1
g4
g11
g8
g3
g7
g10
g6
tp611
a(g2
g5
g9
g1
g4
g7
g8
g6
g3
g10
g11
tp612
a(g2
g5
g9
g1
g8
g3
g6
g4
g7
g10
g11
tp613
a(g2
g5
g9
g1
g8
g4
g3
g6
g7
g10
g11
tp614
a(g2
g5
g9
g1
g8
g6
g3
g11
g7
g10
g4
tp615
a(g2
g5
g9
g1
g8
g6
g4
g3
g7
g11
g10
tp616
a(g2
g5
g9
g1
g8
g6
g4
g10
g3
g7
g11
tp617
a(g2
g5
g9
g1
g8
g6
g4
g7
g10
g3
g11
tp618
a(g2
g5
g9
g1
g8
g6
g11
g3
g10
g4
g7
tp619
a(g2
g5
g9
g1
g8
g6
g11
g4
g7
g10
g3
tp620
a(g2
g5
g9
g1
g6
g3
g8
g7
g4
g10
g11
tp621
a(g2
g5
g9
g1
g6
g3
g7
g8
g10
g4
g11
tp622
a(g2
g5
g9
g1
g6
g10
g4
g3
g7
g8
g11
tp623
a(g2
g5
g9
g1
g6
g10
g7
g8
g3
g4
g11
tp624
a(g2
g5
g9
g1
g6
g4
g8
g7
g3
g10
g11
tp625
a(g2
g5
g9
g1
g6
g8
g3
g4
g7
g10
g11
tp626
a(g2
g5
g9
g1
g6
g11
g8
g3
g7
g10
g4
tp627
a(g2
g5
g9
g1
g6
g7
g8
g4
g3
g10
g11
tp628
a(g2
g5
g9
g1
g11
g4
g8
g3
g7
g10
g6
tp629
a(g2
g5
g9
g1
g11
g6
g3
g4
g7
g10
g8
tp630
a(g2
g5
g9
g1
g11
g6
g4
g3
g7
g8
g10
tp631
a(g2
g5
g9
g1
g11
g6
g8
g7
g3
g10
g4
tp632
a(g2
g5
g9
g1
g11
g6
g8
g7
g4
g10
g3
tp633
a(g2
g5
g9
g1
g11
g6
g7
g8
g3
g4
g10
tp634
a(g2
g5
g9
g1
g11
g6
g7
g8
g10
g4
g3
tp635
a(g2
g5
g9
g1
g7
g3
g8
g4
g6
g10
g11
tp636
a(g2
g5
g9
g1
g7
g3
g8
g6
g4
g10
g11
tp637
a(g2
g5
g9
g1
g7
g4
g8
g6
g3
g10
g11
tp638
a(g2
g5
g9
g1
g7
g6
g4
g10
g3
g8
g11
tp639
a(g2
g5
g9
g1
g7
g6
g8
g4
g11
g10
g3
tp640
a(g2
g5
g9
g1
g7
g6
g8
g11
g3
g10
g4
tp641
a(g2
g5
g9
g1
g7
g6
g8
g11
g4
g10
g3
tp642
a(g2
g5
g9
g4
g3
g6
g8
g7
g1
g10
g11
tp643
a(g2
g5
g9
g4
g1
g6
g8
g7
g3
g10
g11
tp644
a(g2
g5
g9
g4
g8
g6
g3
g1
g7
g10
g11
tp645
a(g2
g5
g9
g4
g11
g6
g8
g3
g7
g10
g1
tp646
a(g2
g5
g9
g4
g7
g6
g8
g1
g3
g10
g11
tp647
a(g2
g5
g9
g8
g3
g6
g1
g4
g7
g10
g11
tp648
a(g2
g5
g9
g8
g1
g6
g3
g4
g7
g10
g11
tp649
a(g2
g5
g9
g8
g4
g6
g3
g1
g7
g10
g11
tp650
a(g2
g5
g9
g6
g1
g4
g8
g3
g7
g10
g11
tp651
a(g2
g5
g8
g1
g3
g6
g4
g7
g9
g10
g11
tp652
a(g2
g5
g8
g1
g6
g9
g4
g3
g7
g10
g11
tp653
a(g2
g5
g8
g1
g11
g6
g4
g3
g7
g10
g9
tp654
a(g2
g5
g8
g9
g1
g6
g4
g3
g7
g10
g11
tp655
a(g2
g5
g6
g1
g8
g9
g4
g3
g7
g10
g11
tp656
a(g2
g5
g7
g1
g3
g6
g9
g8
g4
g10
g11
tp657
a(g2
g5
g7
g1
g4
g6
g3
g8
g9
g10
g11
tp658
a(g2
g5
g7
g1
g4
g6
g9
g8
g3
g10
g11
tp659
a(g10
g1
g3
g5
g2
g6
g7
g8
g9
g4
g11
tp660
a(g10
g1
g9
g3
g2
g6
g8
g4
g7
g5
g11
tp661
a(g10
g1
g9
g3
g5
g6
g7
g8
g2
g4
g11
tp662
a(g10
g1
g9
g2
g5
g6
g4
g3
g7
g8
g11
tp663
a(g10
g1
g9
g2
g5
g6
g7
g8
g3
g4
g11
tp664
a(g10
g1
g9
g4
g2
g6
g8
g5
g7
g3
g11
tp665
a(g10
g1
g9
g8
g2
g6
g3
g5
g7
g4
g11
tp666
a(g10
g1
g9
g8
g5
g6
g4
g3
g7
g2
g11
tp667
a(g10
g1
g9
g6
g2
g5
g8
g3
g7
g4
g11
tp668
a(g10
g1
g9
g5
g2
g6
g8
g4
g7
g3
g11
tp669
a(g10
g1
g9
g5
g2
g6
g8
g7
g3
g4
g11
tp670
a(g10
g2
g9
g3
g5
g6
g7
g8
g1
g4
g11
tp671
a(g10
g2
g9
g1
g3
g6
g4
g5
g7
g8
g11
tp672
a(g10
g2
g9
g1
g4
g6
g3
g8
g7
g5
g11
tp673
a(g10
g2
g9
g1
g4
g6
g5
g8
g7
g3
g11
tp674
a(g10
g2
g9
g1
g8
g6
g4
g5
g7
g3
g11
tp675
a(g10
g2
g9
g1
g7
g6
g5
g8
g3
g4
g11
tp676
a(g10
g2
g9
g1
g5
g3
g7
g8
g6
g4
g11
tp677
a(g10
g2
g9
g1
g5
g6
g3
g8
g4
g7
g11
tp678
a(g10
g2
g9
g1
g5
g6
g4
g3
g7
g11
g8
tp679
a(g10
g2
g9
g1
g5
g6
g4
g7
g3
g8
g11
tp680
a(g10
g2
g9
g1
g5
g6
g8
g3
g4
g11
g7
tp681
a(g10
g2
g9
g1
g5
g6
g7
g8
g11
g4
g3
tp682
a(g10
g4
g3
g1
g2
g9
g6
g8
g7
g5
g11
tp683
a(g10
g4
g3
g1
g2
g6
g8
g11
g9
g5
g7
tp684
a(g10
g4
g3
g1
g2
g6
g8
g5
g9
g11
g7
tp685
a(g10
g4
g3
g1
g2
g6
g8
g5
g11
g9
g7
tp686
a(g10
g4
g3
g1
g2
g6
g11
g8
g7
g5
g9
tp687
a(g10
g4
g3
g1
g2
g6
g5
g9
g11
g8
g7
tp688
a(g10
g4
g3
g1
g2
g6
g5
g8
g7
g11
g9
tp689
a(g10
g4
g3
g1
g2
g5
g6
g8
g7
g9
g11
tp690
a(g10
g4
g3
g9
g2
g6
g1
g8
g7
g5
g11
tp691
a(g10
g4
g3
g5
g2
g6
g1
g8
g7
g9
g11
tp692
a(g10
g4
g9
g3
g5
g6
g1
g8
g7
g2
g11
tp693
a(g10
g4
g9
g1
g5
g3
g6
g8
g7
g2
g11
tp694
a(g10
g4
g9
g1
g5
g2
g6
g8
g7
g3
g11
tp695
a(g10
g4
g9
g1
g5
g6
g3
g8
g7
g11
g2
tp696
a(g10
g4
g9
g1
g5
g6
g2
g8
g7
g11
g3
tp697
a(g10
g4
g9
g1
g5
g6
g8
g11
g3
g2
g7
tp698
a(g10
g4
g9
g1
g5
g6
g8
g11
g2
g3
g7
tp699
a(g10
g4
g9
g1
g5
g6
g11
g8
g7
g3
g2
tp700
a(g10
g4
g9
g1
g5
g6
g11
g8
g7
g2
g3
tp701
a(g10
g4
g9
g2
g5
g6
g1
g8
g7
g3
g11
tp702
a(g10
g4
g9
g11
g5
g6
g8
g3
g7
g2
g1
tp703
a(g10
g4
g5
g1
g2
g6
g8
g9
g3
g11
g7
tp704
a(g10
g4
g5
g1
g2
g6
g8
g9
g11
g3
g7
tp705
a(g10
g9
g3
g1
g2
g6
g5
g8
g4
g7
g11
tp706
a(g10
g9
g3
g1
g2
g5
g7
g8
g6
g4
g11
tp707
a(g10
g9
g3
g5
g2
g6
g7
g8
g1
g4
g11
tp708
a(g10
g9
g4
g1
g2
g6
g3
g8
g7
g5
g11
tp709
a(g10
g9
g4
g1
g2
g6
g5
g8
g7
g3
g11
tp710
a(g10
g9
g8
g1
g2
g6
g4
g5
g7
g3
g11
tp711
a(g10
g9
g7
g1
g2
g6
g5
g8
g3
g4
g11
tp712
a(g10
g9
g5
g1
g2
g6
g8
g3
g11
g4
g7
tp713
a(g10
g8
g3
g1
g2
g6
g4
g7
g9
g5
g11
tp714
a(g10
g8
g3
g1
g2
g6
g4
g5
g9
g7
g11
tp715
a(g10
g8
g9
g3
g2
g6
g1
g5
g7
g4
g11
tp716
a(g10
g8
g9
g3
g2
g6
g5
g1
g7
g4
g11
tp717
a(g10
g8
g9
g1
g3
g6
g4
g5
g7
g2
g11
tp718
a(g10
g8
g9
g1
g2
g3
g6
g5
g7
g4
g11
tp719
a(g10
g8
g9
g1
g2
g3
g5
g6
g7
g4
g11
tp720
a(g10
g8
g9
g1
g2
g6
g11
g5
g7
g4
g3
tp721
a(g10
g8
g9
g1
g2
g6
g5
g11
g7
g4
g3
tp722
a(g10
g8
g9
g1
g2
g5
g3
g6
g7
g4
g11
tp723
a(g10
g8
g9
g1
g5
g6
g2
g3
g11
g4
g7
tp724
a(g10
g8
g9
g1
g5
g6
g4
g3
g7
g11
g2
tp725
a(g10
g8
g9
g1
g5
g6
g4
g7
g3
g2
g11
tp726
a(g10
g8
g9
g1
g5
g6
g4
g7
g2
g3
g11
tp727
a(g10
g8
g9
g1
g5
g6
g11
g3
g2
g4
g7
tp728
a(g10
g8
g9
g5
g2
g6
g3
g1
g7
g4
g11
tp729
a(g10
g8
g7
g1
g2
g6
g4
g9
g3
g5
g11
tp730
a(g10
g8
g5
g1
g2
g6
g4
g9
g3
g7
g11
tp731
a(g10
g6
g3
g1
g2
g8
g7
g9
g4
g5
g11
tp732
a(g10
g6
g3
g1
g2
g8
g7
g5
g9
g4
g11
tp733
a(g10
g6
g3
g1
g2
g5
g7
g9
g4
g8
g11
tp734
a(g10
g6
g4
g1
g2
g9
g8
g3
g7
g5
g11
tp735
a(g10
g6
g4
g1
g2
g5
g8
g3
g7
g9
g11
tp736
a(g10
g6
g9
g1
g4
g2
g8
g3
g7
g5
g11
tp737
a(g10
g6
g9
g1
g4
g5
g8
g3
g7
g2
g11
tp738
a(g10
g6
g9
g1
g8
g2
g5
g3
g7
g4
g11
tp739
a(g10
g6
g9
g1
g8
g5
g2
g3
g7
g4
g11
tp740
a(g10
g6
g9
g1
g7
g5
g8
g3
g2
g4
g11
tp741
a(g10
g6
g9
g1
g5
g2
g8
g3
g4
g7
g11
tp742
a(g10
g6
g9
g1
g5
g4
g2
g3
g7
g8
g11
tp743
a(g10
g6
g9
g1
g5
g4
g8
g3
g2
g7
g11
tp744
a(g10
g6
g9
g1
g5
g7
g8
g3
g4
g2
g11
tp745
a(g10
g6
g8
g1
g2
g9
g5
g3
g7
g4
g11
tp746
a(g10
g6
g8
g1
g2
g5
g9
g3
g7
g4
g11
tp747
a(g10
g6
g8
g1
g2
g5
g7
g9
g3
g4
g11
tp748
a(g10
g6
g7
g1
g2
g5
g8
g3
g9
g4
g11
tp749
a(g10
g6
g5
g1
g2
g4
g8
g3
g7
g9
g11
tp750
a(g10
g6
g5
g1
g2
g8
g9
g3
g7
g4
g11
tp751
a(g10
g6
g5
g1
g2
g8
g7
g9
g3
g4
g11
tp752
a(g10
g6
g5
g1
g2
g7
g8
g3
g9
g4
g11
tp753
a(g10
g11
g9
g1
g2
g6
g3
g5
g7
g4
g8
tp754
a(g10
g11
g9
g1
g2
g6
g8
g4
g7
g5
g3
tp755
a(g10
g11
g9
g1
g2
g6
g8
g5
g7
g3
g4
tp756
a(g10
g11
g9
g1
g2
g5
g8
g3
g7
g4
g6
tp757
a(g10
g11
g9
g1
g5
g6
g4
g3
g7
g2
g8
tp758
a(g10
g11
g9
g1
g5
g6
g4
g3
g7
g8
g2
tp759
a(g10
g11
g9
g1
g5
g6
g8
g3
g4
g2
g7
tp760
a(g10
g11
g9
g1
g5
g6
g7
g8
g3
g4
g2
tp761
a(g10
g11
g9
g1
g5
g6
g7
g8
g2
g4
g3
tp762
a(g10
g11
g9
g5
g2
g6
g8
g3
g7
g4
g1
tp763
a(g10
g11
g5
g1
g2
g6
g8
g3
g9
g4
g7
tp764
a(g10
g7
g3
g1
g2
g6
g4
g5
g9
g8
g11
tp765
a(g10
g7
g3
g1
g2
g6
g9
g8
g4
g5
g11
tp766
a(g10
g7
g3
g1
g2
g6
g5
g8
g4
g9
g11
tp767
a(g10
g7
g9
g3
g2
g6
g8
g5
g1
g4
g11
tp768
a(g10
g7
g9
g1
g3
g6
g5
g8
g2
g4
g11
tp769
a(g10
g7
g9
g1
g2
g3
g8
g5
g6
g4
g11
tp770
a(g10
g7
g9
g1
g2
g6
g8
g5
g11
g4
g3
tp771
a(g10
g7
g9
g1
g2
g5
g8
g6
g3
g4
g11
tp772
a(g10
g7
g9
g1
g5
g6
g3
g8
g4
g2
g11
tp773
a(g10
g7
g9
g1
g5
g6
g2
g8
g4
g3
g11
tp774
a(g10
g7
g9
g5
g2
g6
g8
g1
g3
g4
g11
tp775
a(g10
g7
g8
g1
g2
g6
g4
g9
g3
g5
g11
tp776
a(g10
g7
g5
g1
g2
g6
g3
g8
g9
g4
g11
tp777
a(g10
g7
g5
g1
g2
g6
g4
g9
g3
g8
g11
tp778
a(g10
g7
g5
g1
g2
g6
g9
g8
g3
g4
g11
tp779
a(g10
g5
g3
g1
g2
g9
g7
g8
g6
g4
g11
tp780
a(g10
g5
g3
g1
g2
g6
g4
g7
g9
g8
g11
tp781
a(g10
g5
g3
g1
g2
g6
g9
g8
g4
g7
g11
tp782
a(g10
g5
g3
g1
g2
g6
g7
g8
g11
g4
g9
tp783
a(g10
g5
g3
g9
g2
g6
g7
g8
g1
g4
g11
tp784
a(g10
g5
g4
g1
g2
g6
g3
g8
g7
g9
g11
tp785
a(g10
g5
g4
g1
g2
g6
g9
g8
g7
g3
g11
tp786
a(g10
g5
g9
g3
g2
g6
g8
g7
g1
g4
g11
tp787
a(g10
g5
g9
g1
g2
g3
g8
g7
g6
g4
g11
tp788
a(g10
g5
g9
g1
g2
g4
g8
g6
g7
g3
g11
tp789
a(g10
g5
g9
g1
g2
g8
g3
g6
g7
g4
g11
tp790
a(g10
g5
g9
g1
g2
g6
g3
g11
g7
g4
g8
tp791
a(g10
g5
g9
g1
g2
g6
g8
g4
g7
g11
g3
tp792
a(g10
g5
g9
g1
g2
g6
g8
g11
g7
g3
g4
tp793
a(g10
g5
g9
g1
g2
g6
g8
g7
g11
g4
g3
tp794
a(g10
g5
g9
g1
g2
g11
g8
g3
g7
g4
g6
tp795
a(g10
g5
g9
g1
g2
g7
g8
g6
g3
g4
g11
tp796
a(g10
g5
g9
g1
g4
g6
g3
g8
g7
g2
g11
tp797
a(g10
g5
g9
g1
g4
g6
g2
g8
g7
g3
g11
tp798
a(g10
g5
g9
g1
g11
g6
g8
g3
g2
g4
g7
tp799
a(g10
g5
g9
g1
g7
g6
g3
g8
g2
g4
g11
tp800
a(g10
g5
g9
g1
g7
g6
g2
g8
g3
g4
g11
tp801
a(g10
g5
g9
g4
g2
g6
g8
g1
g7
g3
g11
tp802
a(g10
g5
g9
g8
g2
g6
g3
g1
g7
g4
g11
tp803
a(g10
g5
g8
g1
g2
g6
g4
g9
g3
g7
g11
tp804
a(g10
g5
g7
g1
g2
g6
g3
g8
g9
g4
g11
tp805
a(g10
g5
g7
g1
g2
g6
g4
g9
g3
g8
g11
tp806
a(g10
g5
g7
g1
g2
g6
g9
g8
g3
g4
g11
tp807
a(g9
g1
g3
g2
g5
g6
g7
g8
g4
g10
g11
tp808
a(g9
g1
g3
g4
g5
g6
g7
g8
g2
g10
g11
tp809
a(g9
g1
g3
g8
g2
g6
g5
g4
g7
g10
g11
tp810
a(g9
g1
g3
g5
g2
g6
g8
g7
g4
g10
g11
tp811
a(g9
g1
g3
g5
g2
g6
g7
g8
g10
g4
g11
tp812
a(g9
g1
g2
g8
g5
g6
g4
g3
g7
g10
g11
tp813
a(g9
g1
g4
g3
g2
g6
g8
g5
g7
g10
g11
tp814
a(g9
g1
g8
g2
g5
g6
g4
g3
g7
g10
g11
tp815
a(g9
g1
g5
g3
g2
g6
g8
g4
g7
g10
g11
tp816
a(g9
g2
g3
g1
g7
g6
g5
g8
g4
g10
g11
tp817
a(g9
g2
g3
g1
g5
g4
g7
g8
g6
g10
g11
tp818
a(g9
g2
g3
g1
g5
g6
g7
g8
g11
g10
g4
tp819
a(g9
g2
g3
g4
g5
g6
g7
g8
g1
g10
g11
tp820
a(g9
g2
g1
g8
g5
g6
g4
g3
g7
g10
g11
tp821
a(g9
g2
g4
g1
g3
g6
g5
g8
g7
g10
g11
tp822
a(g9
g2
g4
g1
g5
g6
g8
g3
g11
g10
g7
tp823
a(g9
g2
g8
g1
g3
g6
g4
g5
g7
g10
g11
tp824
a(g9
g2
g8
g1
g5
g6
g4
g7
g3
g10
g11
tp825
a(g9
g2
g6
g1
g5
g8
g4
g3
g7
g10
g11
tp826
a(g9
g2
g7
g1
g5
g6
g3
g8
g4
g10
g11
tp827
a(g9
g2
g5
g1
g4
g6
g3
g8
g7
g10
g11
tp828
a(g9
g10
g3
g1
g2
g4
g7
g8
g6
g5
g11
tp829
a(g9
g10
g3
g1
g2
g6
g7
g8
g11
g5
g4
tp830
a(g9
g10
g3
g4
g2
g6
g7
g8
g1
g5
g11
tp831
a(g9
g10
g1
g8
g2
g6
g4
g3
g7
g5
g11
tp832
a(g9
g10
g1
g5
g2
g6
g4
g3
g7
g8
g11
tp833
a(g9
g10
g1
g5
g2
g6
g7
g8
g3
g4
g11
tp834
a(g9
g10
g4
g1
g2
g6
g8
g3
g11
g5
g7
tp835
a(g9
g10
g4
g1
g2
g6
g5
g8
g3
g7
g11
tp836
a(g9
g10
g8
g1
g2
g6
g4
g7
g3
g5
g11
tp837
a(g9
g10
g8
g1
g2
g6
g4
g5
g3
g7
g11
tp838
a(g9
g10
g8
g1
g2
g6
g5
g3
g11
g4
g7
tp839
a(g9
g10
g6
g1
g2
g8
g4
g3
g7
g5
g11
tp840
a(g9
g10
g6
g1
g2
g5
g4
g3
g7
g8
g11
tp841
a(g9
g10
g6
g1
g2
g5
g7
g8
g3
g4
g11
tp842
a(g9
g10
g7
g1
g2
g6
g3
g8
g4
g5
g11
tp843
a(g9
g10
g7
g1
g2
g6
g4
g5
g3
g8
g11
tp844
a(g9
g10
g7
g1
g2
g6
g5
g8
g4
g3
g11
tp845
a(g9
g10
g5
g3
g2
g6
g7
g8
g1
g4
g11
tp846
a(g9
g10
g5
g1
g2
g3
g7
g8
g6
g4
g11
tp847
a(g9
g10
g5
g1
g2
g6
g3
g8
g4
g7
g11
tp848
a(g9
g10
g5
g1
g2
g6
g4
g3
g7
g11
g8
tp849
a(g9
g10
g5
g1
g2
g6
g4
g7
g3
g8
g11
tp850
a(g9
g10
g5
g1
g2
g6
g8
g3
g4
g11
g7
tp851
a(g9
g10
g5
g1
g2
g6
g7
g8
g11
g4
g3
tp852
a(g9
g4
g3
g1
g2
g10
g6
g8
g7
g5
g11
tp853
a(g9
g4
g3
g1
g2
g6
g8
g10
g11
g5
g7
tp854
a(g9
g4
g3
g1
g2
g6
g8
g11
g10
g5
g7
tp855
a(g9
g4
g3
g1
g2
g6
g8
g5
g10
g11
g7
tp856
a(g9
g4
g3
g1
g2
g6
g11
g8
g7
g5
g10
tp857
a(g9
g4
g3
g1
g2
g6
g5
g8
g7
g11
g10
tp858
a(g9
g4
g3
g1
g2
g11
g8
g5
g7
g10
g6
tp859
a(g9
g4
g3
g1
g2
g5
g8
g11
g7
g10
g6
tp860
a(g9
g4
g3
g1
g6
g2
g5
g8
g7
g10
g11
tp861
a(g9
g4
g3
g1
g6
g5
g2
g8
g7
g10
g11
tp862
a(g9
g4
g3
g1
g11
g6
g8
g5
g2
g10
g7
tp863
a(g9
g4
g3
g1
g11
g6
g5
g8
g7
g10
g2
tp864
a(g9
g4
g3
g1
g5
g7
g2
g8
g6
g10
g11
tp865
a(g9
g4
g3
g1
g5
g7
g6
g8
g2
g10
g11
tp866
a(g9
g4
g3
g2
g1
g6
g5
g8
g7
g10
g11
tp867
a(g9
g4
g3
g6
g2
g5
g8
g1
g7
g10
g11
tp868
a(g9
g4
g3
g5
g1
g6
g2
g8
g7
g10
g11
tp869
a(g9
g4
g3
g5
g2
g6
g8
g11
g7
g10
g1
tp870
a(g9
g4
g1
g3
g5
g6
g2
g8
g7
g10
g11
tp871
a(g9
g4
g1
g2
g5
g6
g3
g8
g7
g10
g11
tp872
a(g9
g4
g1
g11
g5
g6
g8
g3
g7
g10
g2
tp873
a(g9
g4
g2
g3
g5
g6
g1
g8
g7
g10
g11
tp874
a(g9
g4
g2
g1
g5
g3
g6
g8
g7
g10
g11
tp875
a(g9
g4
g2
g1
g5
g6
g8
g11
g3
g10
g7
tp876
a(g9
g4
g2
g1
g5
g6
g11
g8
g7
g10
g3
tp877
a(g9
g4
g2
g11
g5
g6
g8
g3
g7
g10
g1
tp878
a(g9
g4
g6
g1
g5
g3
g2
g8
g7
g10
g11
tp879
a(g9
g4
g6
g1
g5
g2
g3
g8
g7
g10
g11
tp880
a(g9
g8
g3
g1
g2
g4
g6
g5
g7
g10
g11
tp881
a(g9
g8
g3
g1
g2
g4
g5
g6
g7
g10
g11
tp882
a(g9
g8
g3
g1
g2
g6
g4
g7
g10
g5
g11
tp883
a(g9
g8
g3
g1
g2
g6
g4
g5
g10
g7
g11
tp884
a(g9
g8
g3
g1
g2
g6
g11
g5
g7
g10
g4
tp885
a(g9
g8
g3
g1
g2
g6
g5
g11
g7
g10
g4
tp886
a(g9
g8
g3
g1
g2
g5
g6
g4
g7
g10
g11
tp887
a(g9
g8
g3
g1
g7
g6
g4
g5
g2
g10
g11
tp888
a(g9
g8
g3
g4
g2
g6
g1
g5
g7
g10
g11
tp889
a(g9
g8
g3
g4
g2
g6
g5
g1
g7
g10
g11
tp890
a(g9
g8
g3
g5
g2
g6
g1
g4
g7
g10
g11
tp891
a(g9
g8
g1
g2
g5
g6
g4
g3
g7
g10
g11
tp892
a(g9
g8
g2
g1
g3
g6
g4
g5
g7
g10
g11
tp893
a(g9
g8
g2
g1
g5
g6
g4
g7
g3
g10
g11
tp894
a(g9
g8
g10
g1
g2
g6
g4
g5
g7
g3
g11
tp895
a(g9
g8
g6
g1
g5
g2
g4
g3
g7
g10
g11
tp896
a(g9
g8
g5
g1
g2
g6
g4
g10
g7
g3
g11
tp897
a(g9
g6
g3
g1
g2
g8
g7
g5
g10
g4
g11
tp898
a(g9
g6
g3
g1
g5
g8
g7
g4
g2
g10
g11
tp899
a(g9
g6
g2
g1
g4
g5
g8
g3
g7
g10
g11
tp900
a(g9
g6
g2
g1
g5
g7
g8
g3
g4
g10
g11
tp901
a(g9
g6
g10
g1
g2
g4
g8
g3
g7
g5
g11
tp902
a(g9
g6
g10
g1
g2
g8
g5
g3
g7
g4
g11
tp903
a(g9
g6
g4
g1
g2
g10
g8
g3
g7
g5
g11
tp904
a(g9
g6
g4
g1
g5
g8
g2
g3
g7
g10
g11
tp905
a(g9
g6
g4
g1
g5
g7
g8
g3
g2
g10
g11
tp906
a(g9
g6
g8
g1
g2
g10
g5
g3
g7
g4
g11
tp907
a(g9
g6
g8
g1
g5
g4
g2
g3
g7
g10
g11
tp908
a(g9
g6
g7
g1
g2
g5
g8
g3
g10
g4
g11
tp909
a(g9
g6
g7
g1
g5
g2
g8
g3
g4
g10
g11
tp910
a(g9
g6
g7
g1
g5
g4
g8
g3
g2
g10
g11
tp911
a(g9
g6
g5
g1
g2
g7
g8
g3
g10
g4
g11
tp912
a(g9
g6
g5
g1
g4
g2
g8
g3
g7
g10
g11
tp913
a(g9
g11
g3
g1
g2
g6
g5
g4
g7
g10
g8
tp914
a(g9
g11
g3
g1
g5
g6
g7
g8
g2
g10
g4
tp915
a(g9
g11
g3
g1
g5
g6
g7
g8
g4
g10
g2
tp916
a(g9
g11
g2
g1
g5
g6
g4
g3
g7
g10
g8
tp917
a(g9
g11
g2
g1
g5
g6
g8
g3
g4
g10
g7
tp918
a(g9
g11
g4
g1
g2
g6
g8
g5
g7
g10
g3
tp919
a(g9
g11
g4
g1
g5
g6
g8
g3
g2
g10
g7
tp920
a(g9
g11
g8
g1
g5
g6
g4
g3
g7
g10
g2
tp921
a(g9
g11
g5
g1
g2
g6
g8
g3
g10
g4
g7
tp922
a(g9
g11
g5
g1
g2
g6
g8
g4
g7
g10
g3
tp923
a(g9
g7
g3
g1
g2
g4
g8
g5
g6
g10
g11
tp924
a(g9
g7
g3
g1
g2
g6
g4
g5
g10
g8
g11
tp925
a(g9
g7
g3
g1
g2
g6
g8
g5
g11
g10
g4
tp926
a(g9
g7
g3
g1
g2
g5
g8
g4
g6
g10
g11
tp927
a(g9
g7
g3
g1
g2
g5
g8
g6
g4
g10
g11
tp928
a(g9
g7
g3
g1
g4
g6
g5
g8
g2
g10
g11
tp929
a(g9
g7
g3
g1
g8
g6
g4
g5
g2
g10
g11
tp930
a(g9
g7
g3
g4
g2
g6
g8
g5
g1
g10
g11
tp931
a(g9
g7
g3
g5
g2
g6
g8
g1
g4
g10
g11
tp932
a(g9
g7
g3
g5
g2
g6
g8
g4
g1
g10
g11
tp933
a(g9
g7
g2
g1
g5
g6
g3
g8
g4
g10
g11
tp934
a(g9
g7
g10
g1
g2
g6
g5
g8
g3
g4
g11
tp935
a(g9
g7
g4
g1
g5
g6
g3
g8
g2
g10
g11
tp936
a(g9
g7
g4
g1
g5
g6
g2
g8
g3
g10
g11
tp937
a(g9
g7
g5
g1
g2
g6
g3
g8
g10
g4
g11
tp938
a(g9
g5
g3
g1
g2
g10
g7
g8
g6
g4
g11
tp939
a(g9
g5
g3
g1
g2
g4
g8
g7
g6
g10
g11
tp940
a(g9
g5
g3
g1
g2
g8
g6
g4
g7
g10
g11
tp941
a(g9
g5
g3
g1
g2
g6
g4
g7
g10
g8
g11
tp942
a(g9
g5
g3
g1
g2
g6
g8
g7
g11
g10
g4
tp943
a(g9
g5
g3
g1
g2
g6
g11
g4
g7
g10
g8
tp944
a(g9
g5
g3
g1
g2
g6
g7
g8
g11
g4
g10
tp945
a(g9
g5
g3
g1
g2
g7
g8
g4
g6
g10
g11
tp946
a(g9
g5
g3
g1
g2
g7
g8
g6
g4
g10
g11
tp947
a(g9
g5
g3
g1
g8
g6
g4
g7
g2
g10
g11
tp948
a(g9
g5
g3
g1
g7
g6
g2
g8
g4
g10
g11
tp949
a(g9
g5
g3
g4
g2
g6
g8
g7
g1
g10
g11
tp950
a(g9
g5
g3
g8
g2
g6
g1
g4
g7
g10
g11
tp951
a(g9
g5
g1
g3
g2
g6
g8
g4
g7
g10
g11
tp952
a(g9
g5
g2
g1
g4
g6
g3
g8
g7
g10
g11
tp953
a(g9
g5
g10
g1
g2
g6
g8
g3
g11
g4
g7
tp954
a(g9
g5
g4
g3
g2
g6
g8
g1
g7
g10
g11
tp955
a(g9
g5
g4
g1
g3
g6
g2
g8
g7
g10
g11
tp956
a(g9
g5
g4
g1
g2
g3
g8
g6
g7
g10
g11
tp957
a(g9
g5
g4
g1
g2
g6
g8
g11
g7
g10
g3
tp958
a(g9
g5
g8
g1
g2
g6
g4
g10
g7
g3
g11
tp959
a(g9
g5
g6
g1
g2
g3
g8
g4
g7
g10
g11
tp960
a(g9
g5
g7
g1
g2
g6
g3
g8
g10
g4
g11
tp961
a(g8
g1
g3
g2
g5
g6
g4
g7
g9
g10
g11
tp962
a(g8
g1
g3
g4
g2
g5
g6
g9
g7
g10
g11
tp963
a(g8
g1
g3
g9
g2
g6
g4
g10
g7
g5
g11
tp964
a(g8
g1
g3
g9
g5
g6
g4
g7
g2
g10
g11
tp965
a(g8
g1
g3
g6
g2
g4
g5
g9
g7
g10
g11
tp966
a(g8
g1
g3
g11
g5
g6
g7
g9
g2
g10
g4
tp967
a(g8
g1
g3
g11
g5
g6
g7
g9
g4
g10
g2
tp968
a(g8
g1
g3
g5
g2
g4
g6
g9
g7
g10
g11
tp969
a(g8
g1
g3
g5
g2
g6
g4
g10
g7
g9
g11
tp970
a(g8
g1
g3
g5
g2
g6
g4
g9
g10
g7
g11
tp971
a(g8
g1
g3
g5
g2
g6
g11
g9
g7
g10
g4
tp972
a(g8
g1
g3
g5
g7
g6
g4
g9
g2
g10
g11
tp973
a(g8
g1
g2
g5
g3
g6
g4
g9
g7
g10
g11
tp974
a(g8
g1
g10
g3
g2
g6
g4
g9
g7
g5
g11
tp975
a(g8
g1
g10
g5
g2
g6
g4
g9
g7
g3
g11
tp976
a(g8
g1
g9
g3
g5
g6
g4
g10
g7
g2
g11
tp977
a(g8
g1
g9
g2
g5
g6
g4
g10
g7
g3
g11
tp978
a(g8
g1
g9
g11
g5
g6
g2
g3
g7
g4
g10
tp979
a(g8
g1
g7
g3
g5
g6
g4
g9
g2
g10
g11
tp980
a(g8
g1
g7
g2
g5
g6
g4
g9
g3
g10
g11
tp981
a(g8
g1
g5
g2
g3
g6
g4
g9
g7
g10
g11
tp982
a(g8
g2
g3
g1
g4
g6
g5
g9
g11
g10
g7
tp983
a(g8
g2
g3
g1
g6
g9
g4
g5
g7
g10
g11
tp984
a(g8
g2
g3
g1
g11
g6
g4
g5
g7
g10
g9
tp985
a(g8
g2
g3
g1
g11
g6
g5
g9
g4
g10
g7
tp986
a(g8
g2
g3
g1
g7
g5
g4
g9
g6
g10
g11
tp987
a(g8
g2
g3
g1
g5
g9
g4
g7
g6
g10
g11
tp988
a(g8
g2
g3
g1
g5
g6
g4
g7
g11
g10
g9
tp989
a(g8
g2
g3
g1
g5
g6
g9
g4
g11
g10
g7
tp990
a(g8
g2
g3
g1
g5
g6
g9
g11
g4
g10
g7
tp991
a(g8
g2
g3
g1
g5
g6
g11
g4
g9
g10
g7
tp992
a(g8
g2
g3
g1
g5
g7
g4
g6
g9
g10
g11
tp993
a(g8
g2
g3
g9
g1
g6
g4
g5
g7
g10
g11
tp994
a(g8
g2
g3
g9
g5
g6
g4
g7
g1
g10
g11
tp995
a(g8
g2
g3
g11
g5
g6
g7
g9
g1
g10
g4
tp996
a(g8
g2
g3
g11
g5
g6
g7
g9
g4
g10
g1
tp997
a(g8
g2
g3
g5
g7
g6
g4
g9
g1
g10
g11
tp998
a(g8
g2
g1
g5
g3
g6
g4
g9
g7
g10
g11
tp999
a(g8
g2
g4
g1
g5
g6
g3
g9
g11
g10
g7
tp1000
a(g8
g2
g4
g1
g5
g6
g11
g9
g3
g10
g7
tp1001
a(g8
g2
g9
g1
g5
g10
g4
g6
g7
g3
g11
tp1002
a(g8
g2
g9
g1
g5
g6
g3
g10
g11
g4
g7
tp1003
a(g8
g2
g9
g1
g5
g6
g3
g11
g10
g4
g7
tp1004
a(g8
g2
g9
g1
g5
g6
g4
g10
g7
g11
g3
tp1005
a(g8
g2
g9
g1
g5
g6
g4
g11
g7
g3
g10
tp1006
a(g8
g2
g9
g1
g5
g6
g11
g10
g3
g4
g7
tp1007
a(g8
g2
g9
g11
g5
g6
g1
g3
g7
g4
g10
tp1008
a(g8
g2
g6
g1
g3
g5
g4
g9
g7
g10
g11
tp1009
a(g8
g2
g6
g1
g5
g7
g4
g9
g3
g10
g11
tp1010
a(g8
g2
g7
g3
g5
g6
g4
g9
g1
g10
g11
tp1011
a(g8
g2
g7
g1
g5
g3
g4
g9
g6
g10
g11
tp1012
a(g8
g2
g7
g1
g5
g6
g4
g9
g11
g10
g3
tp1013
a(g8
g2
g5
g3
g1
g6
g4
g9
g7
g10
g11
tp1014
a(g8
g2
g5
g1
g6
g3
g4
g9
g7
g10
g11
tp1015
a(g8
g2
g5
g1
g11
g6
g4
g9
g7
g10
g3
tp1016
a(g8
g10
g3
g1
g2
g9
g4
g7
g6
g5
g11
tp1017
a(g8
g10
g3
g1
g2
g9
g4
g5
g6
g7
g11
tp1018
a(g8
g10
g3
g1
g2
g6
g4
g7
g11
g5
g9
tp1019
a(g8
g10
g3
g1
g2
g6
g4
g5
g11
g7
g9
tp1020
a(g8
g10
g3
g1
g2
g6
g9
g4
g11
g5
g7
tp1021
a(g8
g10
g3
g1
g2
g6
g9
g11
g4
g5
g7
tp1022
a(g8
g10
g3
g1
g2
g6
g9
g5
g4
g11
g7
tp1023
a(g8
g10
g3
g1
g2
g6
g11
g4
g9
g5
g7
tp1024
a(g8
g10
g3
g1
g2
g6
g11
g5
g4
g9
g7
tp1025
a(g8
g10
g3
g1
g2
g6
g5
g4
g9
g11
g7
tp1026
a(g8
g10
g3
g1
g2
g6
g5
g4
g11
g9
g7
tp1027
a(g8
g10
g3
g1
g2
g6
g5
g11
g4
g9
g7
tp1028
a(g8
g10
g3
g1
g2
g7
g4
g6
g9
g5
g11
tp1029
a(g8
g10
g3
g1
g2
g7
g4
g5
g6
g9
g11
tp1030
a(g8
g10
g3
g1
g2
g5
g4
g6
g9
g7
g11
tp1031
a(g8
g10
g3
g1
g2
g5
g4
g7
g6
g9
g11
tp1032
a(g8
g10
g3
g9
g2
g6
g4
g7
g1
g5
g11
tp1033
a(g8
g10
g3
g9
g2
g6
g4
g5
g1
g7
g11
tp1034
a(g8
g10
g3
g11
g2
g6
g7
g9
g1
g5
g4
tp1035
a(g8
g10
g3
g11
g2
g6
g7
g9
g4
g5
g1
tp1036
a(g8
g10
g3
g11
g2
g6
g7
g5
g1
g4
g9
tp1037
a(g8
g10
g3
g11
g2
g6
g7
g5
g9
g4
g1
tp1038
a(g8
g10
g3
g5
g2
g6
g4
g1
g9
g7
g11
tp1039
a(g8
g10
g3
g5
g2
g6
g4
g7
g1
g9
g11
tp1040
a(g8
g10
g1
g3
g2
g6
g4
g5
g7
g9
g11
tp1041
a(g8
g10
g1
g9
g2
g6
g4
g5
g7
g3
g11
tp1042
a(g8
g10
g1
g11
g2
g6
g5
g3
g7
g4
g9
tp1043
a(g8
g10
g1
g5
g2
g6
g4
g9
g3
g7
g11
tp1044
a(g8
g10
g2
g1
g5
g6
g4
g3
g9
g11
g7
tp1045
a(g8
g10
g2
g1
g5
g6
g4
g3
g11
g9
g7
tp1046
a(g8
g10
g4
g1
g2
g6
g3
g9
g11
g5
g7
tp1047
a(g8
g10
g4
g1
g2
g6
g11
g9
g3
g5
g7
tp1048
a(g8
g10
g4
g1
g2
g6
g5
g9
g3
g11
g7
tp1049
a(g8
g10
g4
g1
g2
g6
g5
g9
g11
g3
g7
tp1050
a(g8
g10
g9
g3
g1
g6
g4
g5
g7
g2
g11
tp1051
a(g8
g10
g9
g3
g2
g6
g11
g5
g7
g4
g1
tp1052
a(g8
g10
g9
g3
g2
g6
g5
g11
g7
g4
g1
tp1053
a(g8
g10
g9
g3
g2
g5
g1
g6
g7
g4
g11
tp1054
a(g8
g10
g9
g3
g2
g5
g6
g1
g7
g4
g11
tp1055
a(g8
g10
g9
g3
g5
g6
g4
g1
g2
g7
g11
tp1056
a(g8
g10
g9
g3
g5
g6
g4
g7
g1
g2
g11
tp1057
a(g8
g10
g9
g1
g3
g2
g4
g6
g7
g5
g11
tp1058
a(g8
g10
g9
g1
g3
g6
g2
g5
g11
g4
g7
tp1059
a(g8
g10
g9
g1
g3
g6
g4
g11
g7
g5
g2
tp1060
a(g8
g10
g9
g1
g3
g6
g4
g5
g7
g11
g2
tp1061
a(g8
g10
g9
g1
g3
g6
g11
g5
g2
g4
g7
tp1062
a(g8
g10
g9
g1
g3
g6
g5
g11
g2
g4
g7
tp1063
a(g8
g10
g9
g1
g3
g5
g4
g6
g7
g2
g11
tp1064
a(g8
g10
g9
g1
g2
g3
g11
g5
g7
g4
g6
tp1065
a(g8
g10
g9
g1
g2
g3
g5
g11
g7
g4
g6
tp1066
a(g8
g10
g9
g1
g2
g11
g3
g5
g7
g4
g6
tp1067
a(g8
g10
g9
g1
g2
g11
g6
g5
g7
g4
g3
tp1068
a(g8
g10
g9
g1
g2
g11
g5
g6
g7
g4
g3
tp1069
a(g8
g10
g9
g1
g2
g5
g3
g11
g7
g4
g6
tp1070
a(g8
g10
g9
g1
g2
g5
g6
g11
g7
g4
g3
tp1071
a(g8
g10
g9
g1
g2
g5
g11
g6
g7
g4
g3
tp1072
a(g8
g10
g9
g1
g6
g3
g4
g5
g7
g2
g11
tp1073
a(g8
g10
g9
g1
g6
g2
g4
g5
g7
g3
g11
tp1074
a(g8
g10
g9
g1
g11
g6
g3
g5
g2
g4
g7
tp1075
a(g8
g10
g9
g1
g11
g6
g2
g5
g3
g4
g7
tp1076
a(g8
g10
g9
g1
g11
g6
g4
g5
g7
g3
g2
tp1077
a(g8
g10
g9
g1
g11
g6
g4
g5
g7
g2
g3
tp1078
a(g8
g10
g9
g1
g5
g3
g4
g6
g2
g7
g11
tp1079
a(g8
g10
g9
g1
g5
g3
g4
g7
g6
g2
g11
tp1080
a(g8
g10
g9
g1
g5
g2
g4
g3
g7
g11
g6
tp1081
a(g8
g10
g9
g1
g5
g2
g4
g6
g3
g7
g11
tp1082
a(g8
g10
g9
g1
g5
g2
g4
g7
g6
g3
g11
tp1083
a(g8
g10
g9
g1
g5
g2
g6
g3
g11
g4
g7
tp1084
a(g8
g10
g9
g1
g5
g2
g11
g3
g6
g4
g7
tp1085
a(g8
g10
g9
g1
g5
g6
g3
g4
g2
g11
g7
tp1086
a(g8
g10
g9
g1
g5
g6
g3
g4
g11
g2
g7
tp1087
a(g8
g10
g9
g1
g5
g6
g3
g11
g4
g2
g7
tp1088
a(g8
g10
g9
g1
g5
g6
g2
g4
g3
g11
g7
tp1089
a(g8
g10
g9
g1
g5
g6
g2
g4
g11
g3
g7
tp1090
a(g8
g10
g9
g1
g5
g6
g2
g11
g4
g3
g7
tp1091
a(g8
g10
g9
g1
g5
g6
g4
g11
g3
g7
g2
tp1092
a(g8
g10
g9
g1
g5
g6
g4
g11
g2
g7
g3
tp1093
a(g8
g10
g9
g1
g5
g6
g4
g7
g3
g11
g2
tp1094
a(g8
g10
g9
g1
g5
g6
g4
g7
g2
g11
g3
tp1095
a(g8
g10
g9
g1
g5
g6
g4
g7
g11
g3
g2
tp1096
a(g8
g10
g9
g1
g5
g6
g4
g7
g11
g2
g3
tp1097
a(g8
g10
g9
g1
g5
g6
g11
g4
g3
g2
g7
tp1098
a(g8
g10
g9
g1
g5
g6
g11
g4
g2
g3
g7
tp1099
a(g8
g10
g9
g1
g5
g11
g2
g3
g6
g4
g7
tp1100
a(g8
g10
g9
g1
g5
g11
g4
g3
g7
g2
g6
tp1101
a(g8
g10
g9
g1
g5
g11
g6
g3
g2
g4
g7
tp1102
a(g8
g10
g9
g1
g5
g7
g4
g6
g3
g2
g11
tp1103
a(g8
g10
g9
g1
g5
g7
g4
g6
g2
g3
g11
tp1104
a(g8
g10
g9
g2
g3
g6
g4
g1
g7
g5
g11
tp1105
a(g8
g10
g9
g2
g1
g6
g4
g5
g7
g3
g11
tp1106
a(g8
g10
g9
g2
g5
g6
g1
g3
g11
g4
g7
tp1107
a(g8
g10
g9
g2
g5
g6
g4
g3
g7
g11
g1
tp1108
a(g8
g10
g9
g2
g5
g6
g4
g1
g3
g7
g11
tp1109
a(g8
g10
g9
g2
g5
g6
g4
g7
g1
g3
g11
tp1110
a(g8
g10
g9
g2
g5
g6
g11
g3
g1
g4
g7
tp1111
a(g8
g10
g9
g6
g2
g3
g1
g5
g7
g4
g11
tp1112
a(g8
g10
g9
g6
g2
g3
g5
g1
g7
g4
g11
tp1113
a(g8
g10
g9
g6
g2
g5
g3
g1
g7
g4
g11
tp1114
a(g8
g10
g9
g11
g1
g6
g5
g3
g7
g4
g2
tp1115
a(g8
g10
g9
g11
g5
g6
g1
g3
g7
g2
g4
tp1116
a(g8
g10
g9
g11
g5
g6
g7
g1
g3
g4
g2
tp1117
a(g8
g10
g9
g11
g5
g6
g7
g1
g2
g4
g3
tp1118
a(g8
g10
g9
g5
g3
g6
g4
g1
g7
g2
g11
tp1119
a(g8
g10
g9
g5
g2
g3
g1
g6
g7
g4
g11
tp1120
a(g8
g10
g9
g5
g2
g3
g6
g1
g7
g4
g11
tp1121
a(g8
g10
g9
g5
g2
g6
g3
g11
g7
g4
g1
tp1122
a(g8
g10
g9
g5
g2
g6
g1
g11
g7
g4
g3
tp1123
a(g8
g10
g9
g5
g2
g6
g11
g1
g7
g4
g3
tp1124
a(g8
g10
g6
g1
g2
g3
g4
g5
g7
g9
g11
tp1125
a(g8
g10
g6
g1
g2
g9
g4
g5
g7
g3
g11
tp1126
a(g8
g10
g6
g1
g2
g7
g4
g9
g3
g5
g11
tp1127
a(g8
g10
g6
g1
g2
g5
g4
g9
g3
g7
g11
tp1128
a(g8
g10
g7
g3
g2
g6
g4
g9
g1
g5
g11
tp1129
a(g8
g10
g7
g1
g2
g3
g4
g9
g6
g5
g11
tp1130
a(g8
g10
g7
g1
g2
g6
g4
g9
g11
g5
g3
tp1131
a(g8
g10
g7
g1
g2
g5
g4
g9
g6
g3
g11
tp1132
a(g8
g10
g7
g5
g2
g6
g4
g9
g1
g3
g11
tp1133
a(g8
g10
g5
g3
g2
g6
g4
g1
g7
g9
g11
tp1134
a(g8
g10
g5
g3
g2
g6
g4
g9
g1
g7
g11
tp1135
a(g8
g10
g5
g1
g2
g3
g4
g9
g6
g7
g11
tp1136
a(g8
g10
g5
g1
g2
g3
g4
g6
g7
g9
g11
tp1137
a(g8
g10
g5
g1
g2
g9
g4
g6
g7
g3
g11
tp1138
a(g8
g10
g5
g1
g2
g6
g3
g9
g4
g11
g7
tp1139
a(g8
g10
g5
g1
g2
g6
g3
g11
g9
g4
g7
tp1140
a(g8
g10
g5
g1
g2
g6
g4
g9
g11
g7
g3
tp1141
a(g8
g10
g5
g1
g2
g6
g4
g11
g7
g3
g9
tp1142
a(g8
g10
g5
g1
g2
g6
g4
g11
g7
g9
g3
tp1143
a(g8
g10
g5
g1
g2
g6
g9
g11
g3
g4
g7
tp1144
a(g8
g10
g5
g1
g2
g6
g11
g9
g4
g3
g7
tp1145
a(g8
g10
g5
g1
g2
g7
g4
g9
g6
g3
g11
tp1146
a(g8
g10
g5
g9
g2
g6
g4
g1
g7
g3
g11
tp1147
a(g8
g10
g5
g11
g2
g6
g1
g3
g7
g4
g9
tp1148
a(g8
g10
g5
g11
g2
g6
g9
g3
g7
g4
g1
tp1149
a(g8
g10
g5
g11
g2
g6
g7
g9
g3
g4
g1
tp1150
a(g8
g10
g5
g11
g2
g6
g7
g9
g1
g4
g3
tp1151
a(g8
g4
g3
g1
g5
g2
g6
g9
g11
g10
g7
tp1152
a(g8
g4
g3
g1
g5
g2
g11
g9
g6
g10
g7
tp1153
a(g8
g4
g3
g1
g5
g11
g2
g9
g6
g10
g7
tp1154
a(g8
g4
g3
g1
g5
g11
g6
g9
g2
g10
g7
tp1155
a(g8
g4
g3
g2
g5
g6
g1
g9
g11
g10
g7
tp1156
a(g8
g4
g3
g2
g5
g6
g11
g9
g1
g10
g7
tp1157
a(g8
g4
g3
g11
g1
g6
g5
g9
g7
g10
g2
tp1158
a(g8
g4
g3
g11
g2
g6
g1
g9
g7
g5
g10
tp1159
a(g8
g4
g3
g11
g5
g6
g2
g1
g7
g10
g9
tp1160
a(g8
g4
g3
g11
g5
g6
g9
g1
g7
g10
g2
tp1161
a(g8
g4
g1
g11
g5
g6
g3
g9
g7
g10
g2
tp1162
a(g8
g4
g1
g11
g5
g6
g2
g9
g7
g10
g3
tp1163
a(g8
g4
g2
g11
g5
g6
g3
g9
g7
g10
g1
tp1164
a(g8
g4
g2
g11
g5
g6
g1
g9
g7
g10
g3
tp1165
a(g8
g9
g3
g1
g2
g10
g4
g6
g7
g5
g11
tp1166
a(g8
g9
g3
g1
g2
g6
g4
g11
g7
g5
g10
tp1167
a(g8
g9
g3
g1
g2
g6
g4
g5
g7
g11
g10
tp1168
a(g8
g9
g3
g1
g2
g6
g11
g5
g10
g4
g7
tp1169
a(g8
g9
g3
g1
g2
g6
g5
g10
g11
g4
g7
tp1170
a(g8
g9
g3
g1
g2
g6
g5
g11
g10
g4
g7
tp1171
a(g8
g9
g3
g1
g6
g2
g4
g5
g7
g10
g11
tp1172
a(g8
g9
g3
g1
g11
g6
g4
g5
g7
g10
g2
tp1173
a(g8
g9
g3
g1
g5
g2
g4
g7
g6
g10
g11
tp1174
a(g8
g9
g3
g1
g5
g6
g2
g4
g11
g10
g7
tp1175
a(g8
g9
g3
g1
g5
g6
g2
g11
g4
g10
g7
tp1176
a(g8
g9
g3
g1
g5
g6
g4
g7
g11
g10
g2
tp1177
a(g8
g9
g3
g1
g5
g6
g11
g4
g2
g10
g7
tp1178
a(g8
g9
g3
g1
g5
g7
g4
g6
g2
g10
g11
tp1179
a(g8
g9
g3
g2
g1
g6
g4
g5
g7
g10
g11
tp1180
a(g8
g9
g3
g2
g5
g6
g4
g7
g1
g10
g11
tp1181
a(g8
g9
g2
g3
g5
g6
g4
g1
g7
g10
g11
tp1182
a(g8
g9
g2
g1
g5
g3
g4
g6
g7
g10
g11
tp1183
a(g8
g9
g2
g1
g5
g6
g4
g11
g7
g10
g3
tp1184
a(g8
g6
g3
g1
g2
g10
g9
g4
g7
g5
g11
tp1185
a(g8
g6
g3
g1
g2
g10
g5
g4
g7
g9
g11
tp1186
a(g8
g6
g3
g1
g2
g10
g5
g9
g4
g7
g11
tp1187
a(g8
g6
g3
g1
g2
g10
g5
g7
g9
g4
g11
tp1188
a(g8
g6
g3
g1
g2
g4
g9
g10
g7
g5
g11
tp1189
a(g8
g6
g3
g1
g2
g4
g5
g10
g7
g9
g11
tp1190
a(g8
g6
g3
g1
g2
g4
g5
g9
g10
g7
g11
tp1191
a(g8
g6
g3
g1
g2
g9
g5
g7
g10
g4
g11
tp1192
a(g8
g6
g3
g1
g2
g7
g9
g5
g10
g4
g11
tp1193
a(g8
g6
g3
g1
g2
g7
g5
g10
g9
g4
g11
tp1194
a(g8
g6
g3
g1
g2
g5
g9
g7
g10
g4
g11
tp1195
a(g8
g6
g3
g1
g2
g5
g7
g9
g11
g4
g10
tp1196
a(g8
g6
g3
g1
g4
g2
g9
g5
g7
g10
g11
tp1197
a(g8
g6
g3
g1
g4
g9
g2
g5
g7
g10
g11
tp1198
a(g8
g6
g3
g1
g4
g7
g5
g9
g2
g10
g11
tp1199
a(g8
g6
g3
g1
g7
g2
g5
g9
g4
g10
g11
tp1200
a(g8
g6
g3
g1
g7
g4
g5
g9
g2
g10
g11
tp1201
a(g8
g6
g3
g1
g7
g5
g2
g9
g4
g10
g11
tp1202
a(g8
g6
g3
g1
g5
g2
g9
g7
g4
g10
g11
tp1203
a(g8
g6
g3
g1
g5
g2
g7
g9
g11
g10
g4
tp1204
a(g8
g6
g3
g1
g5
g4
g2
g7
g9
g10
g11
tp1205
a(g8
g6
g3
g1
g5
g4
g9
g7
g2
g10
g11
tp1206
a(g8
g6
g3
g1
g5
g4
g7
g9
g11
g10
g2
tp1207
a(g8
g6
g3
g1
g5
g9
g2
g7
g4
g10
g11
tp1208
a(g8
g6
g3
g1
g5
g11
g7
g9
g2
g10
g4
tp1209
a(g8
g6
g3
g1
g5
g11
g7
g9
g4
g10
g2
tp1210
a(g8
g6
g3
g1
g5
g7
g2
g4
g9
g10
g11
tp1211
a(g8
g6
g3
g1
g5
g7
g9
g4
g2
g10
g11
tp1212
a(g8
g6
g3
g2
g5
g4
g7
g9
g1
g10
g11
tp1213
a(g8
g6
g3
g4
g5
g2
g7
g9
g1
g10
g11
tp1214
a(g8
g6
g3
g5
g2
g10
g7
g9
g1
g4
g11
tp1215
a(g8
g6
g2
g1
g3
g4
g5
g9
g7
g10
g11
tp1216
a(g8
g6
g2
g1
g4
g3
g5
g9
g7
g10
g11
tp1217
a(g8
g6
g2
g1
g4
g5
g3
g9
g7
g10
g11
tp1218
a(g8
g6
g2
g1
g5
g3
g9
g4
g7
g10
g11
tp1219
a(g8
g6
g2
g1
g5
g10
g4
g3
g7
g9
g11
tp1220
a(g8
g6
g2
g1
g5
g9
g3
g4
g7
g10
g11
tp1221
a(g8
g6
g2
g1
g5
g7
g3
g9
g4
g10
g11
tp1222
a(g8
g6
g10
g1
g2
g3
g9
g5
g7
g4
g11
tp1223
a(g8
g6
g10
g1
g2
g4
g3
g9
g7
g5
g11
tp1224
a(g8
g6
g10
g1
g2
g4
g5
g9
g7
g3
g11
tp1225
a(g8
g6
g10
g1
g2
g9
g3
g5
g7
g4
g11
tp1226
a(g8
g6
g10
g1
g2
g7
g5
g9
g3
g4
g11
tp1227
a(g8
g6
g10
g1
g5
g2
g4
g3
g7
g9
g11
tp1228
a(g8
g6
g10
g1
g5
g9
g4
g3
g7
g2
g11
tp1229
a(g8
g6
g4
g1
g3
g2
g5
g9
g7
g10
g11
tp1230
a(g8
g6
g4
g1
g3
g5
g2
g9
g7
g10
g11
tp1231
a(g8
g6
g4
g1
g2
g10
g3
g9
g7
g5
g11
tp1232
a(g8
g6
g4
g1
g2
g10
g5
g9
g7
g3
g11
tp1233
a(g8
g6
g4
g1
g5
g7
g3
g9
g2
g10
g11
tp1234
a(g8
g6
g4
g1
g5
g7
g2
g9
g3
g10
g11
tp1235
a(g8
g6
g9
g1
g3
g2
g5
g10
g7
g4
g11
tp1236
a(g8
g6
g9
g1
g3
g10
g2
g5
g7
g4
g11
tp1237
a(g8
g6
g9
g1
g3
g5
g2
g10
g7
g4
g11
tp1238
a(g8
g6
g9
g1
g10
g3
g2
g5
g7
g4
g11
tp1239
a(g8
g6
g9
g1
g10
g2
g3
g5
g7
g4
g11
tp1240
a(g8
g6
g9
g1
g5
g3
g2
g7
g10
g4
g11
tp1241
a(g8
g6
g9
g1
g5
g2
g3
g7
g10
g4
g11
tp1242
a(g8
g6
g9
g1
g5
g2
g11
g3
g7
g4
g10
tp1243
a(g8
g6
g9
g1
g5
g10
g3
g4
g7
g2
g11
tp1244
a(g8
g6
g9
g1
g5
g10
g3
g7
g2
g4
g11
tp1245
a(g8
g6
g9
g1
g5
g10
g2
g4
g7
g3
g11
tp1246
a(g8
g6
g9
g1
g5
g10
g2
g7
g3
g4
g11
tp1247
a(g8
g6
g9
g1
g5
g10
g11
g3
g7
g4
g2
tp1248
a(g8
g6
g9
g1
g5
g4
g3
g10
g7
g2
g11
tp1249
a(g8
g6
g9
g1
g5
g4
g2
g10
g7
g3
g11
tp1250
a(g8
g6
g9
g1
g5
g11
g2
g3
g7
g4
g10
tp1251
a(g8
g6
g9
g1
g5
g7
g3
g10
g2
g4
g11
tp1252
a(g8
g6
g9
g1
g5
g7
g2
g10
g3
g4
g11
tp1253
a(g8
g6
g9
g2
g5
g10
g1
g3
g7
g4
g11
tp1254
a(g8
g6
g7
g1
g2
g3
g5
g9
g10
g4
g11
tp1255
a(g8
g6
g7
g1
g2
g10
g5
g9
g3
g4
g11
tp1256
a(g8
g6
g7
g1
g2
g5
g3
g9
g10
g4
g11
tp1257
a(g8
g6
g7
g1
g5
g3
g2
g9
g4
g10
g11
tp1258
a(g8
g6
g7
g1
g5
g2
g3
g9
g4
g10
g11
tp1259
a(g8
g6
g7
g1
g5
g4
g3
g9
g2
g10
g11
tp1260
a(g8
g6
g7
g1
g5
g4
g2
g9
g3
g10
g11
tp1261
a(g8
g6
g5
g1
g3
g4
g2
g9
g7
g10
g11
tp1262
a(g8
g6
g5
g1
g2
g3
g9
g10
g7
g4
g11
tp1263
a(g8
g6
g5
g1
g2
g9
g3
g10
g7
g4
g11
tp1264
a(g8
g6
g5
g1
g2
g7
g3
g9
g10
g4
g11
tp1265
a(g8
g6
g5
g1
g4
g3
g2
g9
g7
g10
g11
tp1266
a(g8
g6
g5
g1
g4
g2
g3
g9
g7
g10
g11
tp1267
a(g8
g11
g3
g1
g2
g4
g5
g9
g7
g10
g6
tp1268
a(g8
g11
g3
g1
g2
g6
g4
g10
g7
g5
g9
tp1269
a(g8
g11
g3
g1
g2
g6
g4
g5
g7
g9
g10
tp1270
a(g8
g11
g3
g1
g2
g6
g9
g5
g10
g4
g7
tp1271
a(g8
g11
g3
g1
g2
g6
g5
g10
g9
g4
g7
tp1272
a(g8
g11
g3
g1
g2
g5
g6
g9
g7
g10
g4
tp1273
a(g8
g11
g3
g1
g4
g6
g5
g9
g2
g10
g7
tp1274
a(g8
g11
g3
g1
g5
g6
g2
g4
g9
g10
g7
tp1275
a(g8
g11
g3
g1
g5
g6
g4
g7
g2
g10
g9
tp1276
a(g8
g11
g3
g1
g5
g6
g4
g7
g9
g10
g2
tp1277
a(g8
g11
g3
g1
g5
g6
g9
g4
g2
g10
g7
tp1278
a(g8
g11
g3
g4
g2
g6
g5
g9
g7
g10
g1
tp1279
a(g8
g11
g3
g5
g2
g6
g1
g9
g7
g10
g4
tp1280
a(g8
g11
g2
g1
g5
g6
g3
g9
g4
g10
g7
tp1281
a(g8
g11
g10
g1
g2
g6
g4
g9
g7
g5
g3
tp1282
a(g8
g11
g10
g1
g2
g6
g5
g9
g3
g4
g7
tp1283
a(g8
g11
g4
g1
g5
g6
g3
g9
g2
g10
g7
tp1284
a(g8
g11
g4
g1
g5
g6
g2
g9
g3
g10
g7
tp1285
a(g8
g11
g9
g1
g5
g6
g3
g10
g2
g4
g7
tp1286
a(g8
g11
g9
g1
g5
g6
g2
g10
g3
g4
g7
tp1287
a(g8
g11
g9
g1
g5
g6
g4
g10
g7
g3
g2
tp1288
a(g8
g11
g9
g1
g5
g6
g4
g10
g7
g2
g3
tp1289
a(g8
g11
g7
g1
g5
g6
g4
g9
g3
g10
g2
tp1290
a(g8
g11
g7
g1
g5
g6
g4
g9
g2
g10
g3
tp1291
a(g8
g11
g5
g1
g3
g6
g4
g9
g7
g10
g2
tp1292
a(g8
g11
g5
g1
g2
g6
g3
g9
g10
g4
g7
tp1293
a(g8
g11
g5
g1
g2
g6
g4
g9
g7
g3
g10
tp1294
a(g8
g7
g3
g1
g2
g10
g4
g9
g6
g5
g11
tp1295
a(g8
g7
g3
g1
g2
g6
g4
g9
g11
g5
g10
tp1296
a(g8
g7
g3
g1
g6
g5
g4
g9
g2
g10
g11
tp1297
a(g8
g7
g3
g1
g5
g2
g4
g6
g9
g10
g11
tp1298
a(g8
g7
g3
g1
g5
g9
g4
g6
g2
g10
g11
tp1299
a(g8
g7
g3
g1
g5
g6
g4
g11
g2
g10
g9
tp1300
a(g8
g7
g3
g1
g5
g6
g4
g11
g9
g10
g2
tp1301
a(g8
g7
g3
g2
g5
g6
g4
g1
g9
g10
g11
tp1302
a(g8
g7
g3
g9
g5
g6
g4
g1
g2
g10
g11
tp1303
a(g8
g7
g3
g5
g1
g6
g4
g9
g2
g10
g11
tp1304
a(g8
g7
g1
g3
g5
g6
g4
g9
g2
g10
g11
tp1305
a(g8
g7
g1
g2
g5
g6
g4
g9
g3
g10
g11
tp1306
a(g8
g7
g2
g3
g5
g6
g4
g9
g1
g10
g11
tp1307
a(g8
g7
g2
g1
g5
g3
g4
g9
g6
g10
g11
tp1308
a(g8
g7
g2
g1
g5
g6
g4
g9
g11
g10
g3
tp1309
a(g8
g7
g6
g1
g5
g3
g4
g9
g2
g10
g11
tp1310
a(g8
g7
g6
g1
g5
g2
g4
g9
g3
g10
g11
tp1311
a(g8
g5
g3
g1
g2
g10
g4
g9
g6
g7
g11
tp1312
a(g8
g5
g3
g1
g2
g10
g4
g6
g7
g9
g11
tp1313
a(g8
g5
g3
g1
g2
g4
g11
g9
g7
g10
g6
tp1314
a(g8
g5
g3
g1
g2
g6
g4
g10
g7
g11
g9
tp1315
a(g8
g5
g3
g1
g2
g6
g4
g9
g11
g7
g10
tp1316
a(g8
g5
g3
g1
g2
g6
g4
g11
g7
g9
g10
tp1317
a(g8
g5
g3
g1
g2
g6
g9
g10
g11
g4
g7
tp1318
a(g8
g5
g3
g1
g2
g6
g9
g11
g10
g4
g7
tp1319
a(g8
g5
g3
g1
g2
g6
g11
g10
g9
g4
g7
tp1320
a(g8
g5
g3
g1
g2
g11
g6
g9
g7
g10
g4
tp1321
a(g8
g5
g3
g1
g4
g6
g2
g9
g11
g10
g7
tp1322
a(g8
g5
g3
g1
g4
g6
g11
g9
g2
g10
g7
tp1323
a(g8
g5
g3
g1
g6
g7
g4
g9
g2
g10
g11
tp1324
a(g8
g5
g3
g1
g11
g6
g2
g9
g4
g10
g7
tp1325
a(g8
g5
g3
g1
g7
g2
g4
g9
g6
g10
g11
tp1326
a(g8
g5
g3
g1
g7
g6
g4
g9
g11
g10
g2
tp1327
a(g8
g5
g3
g2
g7
g6
g4
g9
g1
g10
g11
tp1328
a(g8
g5
g3
g4
g2
g6
g11
g9
g7
g10
g1
tp1329
a(g8
g5
g3
g6
g2
g4
g1
g9
g7
g10
g11
tp1330
a(g8
g5
g3
g11
g2
g6
g7
g9
g1
g4
g10
tp1331
a(g8
g5
g3
g11
g2
g6
g7
g9
g10
g4
g1
tp1332
a(g8
g5
g1
g2
g3
g6
g4
g9
g7
g10
g11
tp1333
a(g8
g5
g2
g3
g1
g6
g4
g9
g7
g10
g11
tp1334
a(g8
g5
g2
g1
g6
g3
g4
g9
g7
g10
g11
tp1335
a(g8
g5
g2
g1
g11
g6
g4
g9
g7
g10
g3
tp1336
a(g8
g5
g10
g1
g2
g6
g3
g9
g11
g4
g7
tp1337
a(g8
g5
g10
g1
g2
g6
g4
g9
g7
g11
g3
tp1338
a(g8
g5
g10
g1
g2
g6
g11
g9
g3
g4
g7
tp1339
a(g8
g5
g6
g1
g3
g2
g4
g9
g7
g10
g11
tp1340
a(g8
g5
g6
g1
g2
g10
g4
g9
g7
g3
g11
tp1341
a(g6
g1
g9
g2
g5
g4
g8
g3
g7
g10
g11
tp1342
a(g6
g1
g9
g4
g5
g2
g8
g3
g7
g10
g11
tp1343
a(g6
g1
g9
g5
g2
g10
g8
g3
g7
g4
g11
tp1344
a(g6
g2
g3
g1
g5
g4
g7
g8
g9
g10
g11
tp1345
a(g6
g2
g3
g1
g5
g9
g7
g8
g4
g10
g11
tp1346
a(g6
g2
g9
g1
g3
g4
g8
g5
g7
g10
g11
tp1347
a(g6
g2
g9
g1
g3
g5
g8
g4
g7
g10
g11
tp1348
a(g6
g2
g9
g1
g4
g3
g8
g5
g7
g10
g11
tp1349
a(g6
g2
g9
g1
g5
g3
g8
g7
g4
g10
g11
tp1350
a(g6
g2
g9
g1
g5
g3
g7
g8
g10
g4
g11
tp1351
a(g6
g2
g9
g1
g5
g10
g4
g3
g7
g8
g11
tp1352
a(g6
g2
g9
g1
g5
g10
g7
g8
g3
g4
g11
tp1353
a(g6
g2
g9
g1
g5
g4
g8
g7
g3
g10
g11
tp1354
a(g6
g2
g9
g1
g5
g8
g3
g4
g7
g10
g11
tp1355
a(g6
g2
g9
g1
g5
g11
g8
g3
g7
g10
g4
tp1356
a(g6
g2
g9
g1
g5
g7
g8
g4
g3
g10
g11
tp1357
a(g6
g2
g8
g1
g5
g9
g4
g3
g7
g10
g11
tp1358
a(g6
g10
g3
g1
g2
g4
g7
g8
g9
g5
g11
tp1359
a(g6
g10
g3
g1
g2
g9
g7
g8
g4
g5
g11
tp1360
a(g6
g10
g3
g1
g2
g5
g7
g8
g4
g9
g11
tp1361
a(g6
g10
g9
g1
g3
g5
g7
g8
g2
g4
g11
tp1362
a(g6
g10
g9
g1
g2
g3
g8
g7
g4
g5
g11
tp1363
a(g6
g10
g9
g1
g2
g3
g8
g5
g4
g7
g11
tp1364
a(g6
g10
g9
g1
g2
g3
g5
g4
g7
g8
g11
tp1365
a(g6
g10
g9
g1
g2
g4
g3
g5
g7
g8
g11
tp1366
a(g6
g10
g9
g1
g2
g4
g8
g7
g3
g5
g11
tp1367
a(g6
g10
g9
g1
g2
g4
g8
g5
g3
g7
g11
tp1368
a(g6
g10
g9
g1
g2
g8
g3
g4
g7
g5
g11
tp1369
a(g6
g10
g9
g1
g2
g8
g5
g4
g7
g3
g11
tp1370
a(g6
g10
g9
g1
g2
g8
g5
g7
g3
g4
g11
tp1371
a(g6
g10
g9
g1
g2
g11
g8
g3
g7
g5
g4
tp1372
a(g6
g10
g9
g1
g2
g11
g5
g3
g7
g4
g8
tp1373
a(g6
g10
g9
g1
g2
g7
g8
g4
g3
g5
g11
tp1374
a(g6
g10
g9
g1
g2
g7
g8
g5
g4
g3
g11
tp1375
a(g6
g10
g9
g1
g2
g5
g3
g4
g7
g8
g11
tp1376
a(g6
g10
g9
g1
g2
g5
g8
g3
g7
g11
g4
tp1377
a(g6
g10
g9
g1
g2
g5
g8
g4
g3
g7
g11
tp1378
a(g6
g10
g9
g1
g2
g5
g8
g7
g4
g3
g11
tp1379
a(g6
g10
g9
g1
g2
g5
g11
g3
g7
g4
g8
tp1380
a(g6
g10
g9
g1
g8
g2
g4
g3
g7
g5
g11
tp1381
a(g6
g10
g9
g1
g8
g5
g4
g3
g7
g2
g11
tp1382
a(g6
g10
g9
g1
g5
g3
g7
g8
g4
g2
g11
tp1383
a(g6
g10
g9
g1
g5
g2
g7
g8
g4
g3
g11
tp1384
a(g6
g10
g9
g1
g5
g4
g7
g8
g3
g2
g11
tp1385
a(g6
g10
g9
g1
g5
g4
g7
g8
g2
g3
g11
tp1386
a(g6
g10
g9
g1
g5
g8
g4
g3
g2
g7
g11
tp1387
a(g6
g10
g9
g1
g5
g7
g4
g3
g2
g8
g11
tp1388
a(g6
g10
g9
g8
g2
g5
g1
g3
g7
g4
g11
tp1389
a(g6
g10
g9
g5
g2
g8
g1
g3
g7
g4
g11
tp1390
a(g6
g10
g9
g5
g2
g7
g8
g3
g1
g4
g11
tp1391
a(g6
g10
g8
g1
g2
g9
g4
g3
g7
g5
g11
tp1392
a(g6
g10
g8
g1
g2
g5
g4
g3
g7
g9
g11
tp1393
a(g6
g10
g5
g1
g2
g3
g7
g8
g9
g4
g11
tp1394
a(g6
g10
g5
g1
g2
g9
g4
g3
g7
g8
g11
tp1395
a(g6
g10
g5
g1
g2
g9
g7
g8
g3
g4
g11
tp1396
a(g6
g10
g5
g1
g2
g8
g4
g3
g7
g9
g11
tp1397
a(g6
g4
g3
g1
g2
g10
g9
g8
g7
g5
g11
tp1398
a(g6
g4
g3
g1
g2
g10
g5
g8
g7
g9
g11
tp1399
a(g6
g4
g3
g1
g2
g11
g8
g5
g7
g10
g9
tp1400
a(g6
g4
g3
g1
g2
g11
g5
g9
g7
g10
g8
tp1401
a(g6
g4
g3
g1
g2
g5
g8
g11
g7
g10
g9
tp1402
a(g6
g4
g3
g1
g2
g5
g11
g9
g7
g10
g8
tp1403
a(g6
g4
g3
g1
g5
g7
g2
g8
g9
g10
g11
tp1404
a(g6
g4
g3
g1
g5
g7
g9
g8
g2
g10
g11
tp1405
a(g6
g4
g3
g9
g2
g5
g8
g1
g7
g10
g11
tp1406
a(g6
g4
g3
g8
g2
g5
g1
g9
g7
g10
g11
tp1407
a(g6
g4
g3
g5
g2
g9
g8
g1
g7
g10
g11
tp1408
a(g6
g4
g3
g5
g2
g8
g1
g9
g7
g10
g11
tp1409
a(g6
g4
g3
g5
g2
g7
g8
g9
g1
g10
g11
tp1410
a(g6
g4
g1
g3
g2
g5
g8
g9
g7
g10
g11
tp1411
a(g6
g4
g1
g5
g2
g3
g8
g9
g7
g10
g11
tp1412
a(g6
g4
g2
g1
g5
g3
g9
g8
g7
g10
g11
tp1413
a(g6
g4
g2
g1
g5
g9
g3
g8
g7
g10
g11
tp1414
a(g6
g4
g9
g3
g5
g2
g8
g1
g7
g10
g11
tp1415
a(g6
g4
g9
g1
g5
g3
g8
g11
g7
g10
g2
tp1416
a(g6
g4
g9
g1
g5
g2
g8
g11
g7
g10
g3
tp1417
a(g6
g4
g9
g1
g5
g10
g3
g8
g7
g2
g11
tp1418
a(g6
g4
g9
g1
g5
g10
g2
g8
g7
g3
g11
tp1419
a(g6
g4
g9
g2
g5
g3
g8
g1
g7
g10
g11
tp1420
a(g6
g4
g5
g1
g2
g11
g8
g9
g7
g10
g3
tp1421
a(g6
g9
g3
g1
g2
g8
g5
g4
g7
g10
g11
tp1422
a(g6
g9
g3
g1
g2
g7
g8
g5
g4
g10
g11
tp1423
a(g6
g9
g3
g1
g2
g5
g8
g7
g4
g10
g11
tp1424
a(g6
g9
g3
g1
g2
g5
g7
g8
g10
g4
g11
tp1425
a(g6
g9
g3
g1
g5
g2
g7
g8
g4
g10
g11
tp1426
a(g6
g9
g3
g1
g5
g4
g7
g8
g2
g10
g11
tp1427
a(g6
g9
g2
g1
g5
g8
g4
g3
g7
g10
g11
tp1428
a(g6
g9
g4
g1
g2
g3
g8
g5
g7
g10
g11
tp1429
a(g6
g9
g8
g1
g5
g2
g4
g3
g7
g10
g11
tp1430
a(g6
g9
g5
g1
g2
g3
g8
g4
g7
g10
g11
tp1431
a(g6
g8
g3
g1
g2
g4
g9
g5
g7
g10
g11
tp1432
a(g6
g8
g3
g1
g2
g9
g5
g4
g7
g10
g11
tp1433
a(g6
g8
g3
g1
g2
g7
g5
g9
g4
g10
g11
tp1434
a(g6
g8
g3
g1
g2
g5
g9
g4
g7
g10
g11
tp1435
a(g6
g8
g2
g1
g5
g9
g4
g3
g7
g10
g11
tp1436
a(g6
g8
g4
g1
g2
g3
g5
g9
g7
g10
g11
tp1437
a(g6
g8
g4
g1
g2
g5
g3
g9
g7
g10
g11
tp1438
a(g6
g8
g9
g1
g2
g3
g5
g10
g7
g4
g11
tp1439
a(g6
g8
g9
g1
g2
g10
g3
g5
g7
g4
g11
tp1440
a(g6
g8
g9
g1
g2
g5
g3
g10
g7
g4
g11
tp1441
a(g6
g8
g9
g1
g5
g3
g2
g4
g7
g10
g11
tp1442
a(g6
g8
g9
g1
g5
g2
g3
g4
g7
g10
g11
tp1443
a(g6
g8
g9
g1
g5
g10
g4
g3
g7
g2
g11
tp1444
a(g6
g8
g5
g1
g2
g4
g3
g9
g7
g10
g11
tp1445
a(g6
g11
g9
g1
g2
g5
g8
g3
g7
g4
g10
tp1446
a(g6
g11
g9
g1
g5
g2
g8
g3
g7
g10
g4
tp1447
a(g6
g11
g9
g1
g5
g4
g8
g3
g7
g10
g2
tp1448
a(g6
g7
g3
g1
g2
g4
g8
g5
g9
g10
g11
tp1449
a(g6
g7
g3
g1
g2
g9
g8
g5
g4
g10
g11
tp1450
a(g6
g7
g3
g1
g2
g8
g5
g9
g4
g10
g11
tp1451
a(g6
g7
g3
g1
g2
g5
g8
g4
g9
g10
g11
tp1452
a(g6
g7
g4
g1
g2
g5
g8
g9
g3
g10
g11
tp1453
a(g6
g7
g9
g1
g2
g3
g8
g5
g10
g4
g11
tp1454
a(g6
g7
g9
g1
g2
g10
g8
g5
g3
g4
g11
tp1455
a(g6
g7
g9
g1
g2
g5
g8
g10
g3
g4
g11
tp1456
a(g6
g7
g9
g1
g5
g3
g8
g4
g2
g10
g11
tp1457
a(g6
g7
g9
g1
g5
g2
g8
g4
g3
g10
g11
tp1458
a(g6
g7
g5
g1
g2
g3
g8
g9
g4
g10
g11
tp1459
a(g6
g7
g5
g1
g2
g4
g8
g9
g3
g10
g11
tp1460
a(g6
g5
g3
g1
g2
g10
g7
g8
g9
g4
g11
tp1461
a(g6
g5
g3
g1
g2
g4
g8
g7
g9
g10
g11
tp1462
a(g6
g5
g3
g1
g2
g9
g8
g7
g4
g10
g11
tp1463
a(g6
g5
g3
g1
g2
g9
g7
g8
g10
g4
g11
tp1464
a(g6
g5
g3
g1
g2
g8
g9
g4
g7
g10
g11
tp1465
a(g6
g5
g3
g1
g2
g7
g8
g4
g9
g10
g11
tp1466
a(g6
g5
g4
g1
g2
g8
g3
g9
g7
g10
g11
tp1467
a(g6
g5
g4
g1
g2
g7
g8
g9
g3
g10
g11
tp1468
a(g6
g5
g9
g1
g3
g2
g8
g4
g7
g10
g11
tp1469
a(g6
g5
g9
g1
g2
g3
g8
g7
g10
g4
g11
tp1470
a(g6
g5
g9
g1
g2
g10
g8
g4
g7
g3
g11
tp1471
a(g6
g5
g9
g1
g2
g10
g8
g7
g3
g4
g11
tp1472
a(g6
g5
g9
g1
g2
g4
g8
g10
g7
g3
g11
tp1473
a(g6
g5
g9
g1
g2
g8
g3
g10
g7
g4
g11
tp1474
a(g6
g5
g9
g1
g2
g11
g8
g3
g7
g4
g10
tp1475
a(g6
g5
g9
g1
g2
g7
g8
g10
g3
g4
g11
tp1476
a(g6
g5
g8
g1
g2
g4
g3
g9
g7
g10
g11
tp1477
a(g6
g5
g7
g1
g2
g3
g8
g9
g4
g10
g11
tp1478
a(g6
g5
g7
g1
g2
g4
g8
g9
g3
g10
g11
tp1479
a(g11
g1
g9
g2
g5
g6
g8
g3
g7
g10
g4
tp1480
a(g11
g1
g9
g4
g5
g6
g8
g3
g7
g10
g2
tp1481
a(g11
g1
g9
g5
g2
g6
g8
g3
g7
g4
g10
tp1482
a(g11
g2
g3
g1
g5
g6
g7
g8
g4
g10
g9
tp1483
a(g11
g2
g3
g1
g5
g6
g7
g8
g9
g10
g4
tp1484
a(g11
g2
g4
g1
g5
g6
g8
g3
g9
g10
g7
tp1485
a(g11
g2
g9
g1
g3
g6
g8
g5
g7
g10
g4
tp1486
a(g11
g2
g9
g1
g4
g6
g8
g5
g7
g10
g3
tp1487
a(g11
g2
g9
g1
g5
g4
g8
g3
g7
g10
g6
tp1488
a(g11
g2
g9
g1
g5
g6
g3
g4
g7
g10
g8
tp1489
a(g11
g2
g9
g1
g5
g6
g4
g3
g7
g8
g10
tp1490
a(g11
g2
g9
g1
g5
g6
g8
g7
g3
g10
g4
tp1491
a(g11
g2
g9
g1
g5
g6
g8
g7
g4
g10
g3
tp1492
a(g11
g2
g9
g1
g5
g6
g7
g8
g3
g4
g10
tp1493
a(g11
g2
g9
g1
g5
g6
g7
g8
g10
g4
g3
tp1494
a(g11
g2
g9
g4
g5
g6
g8
g3
g7
g10
g1
tp1495
a(g11
g2
g8
g1
g5
g6
g4
g3
g7
g10
g9
tp1496
a(g11
g10
g3
g1
g2
g6
g7
g8
g4
g5
g9
tp1497
a(g11
g10
g3
g1
g2
g6
g7
g8
g9
g5
g4
tp1498
a(g11
g10
g4
g1
g2
g6
g8
g3
g9
g5
g7
tp1499
a(g11
g10
g9
g1
g2
g4
g8
g3
g7
g5
g6
tp1500
a(g11
g10
g9
g1
g2
g8
g5
g3
g7
g4
g6
tp1501
a(g11
g10
g9
g1
g2
g6
g3
g4
g7
g5
g8
tp1502
a(g11
g10
g9
g1
g2
g6
g3
g5
g7
g8
g4
tp1503
a(g11
g10
g9
g1
g2
g6
g8
g7
g3
g5
g4
tp1504
a(g11
g10
g9
g1
g2
g6
g8
g7
g4
g5
g3
tp1505
a(g11
g10
g9
g1
g2
g6
g8
g5
g3
g7
g4
tp1506
a(g11
g10
g9
g1
g2
g6
g8
g5
g4
g7
g3
tp1507
a(g11
g10
g9
g1
g2
g6
g5
g4
g7
g3
g8
tp1508
a(g11
g10
g9
g1
g2
g6
g5
g4
g7
g8
g3
tp1509
a(g11
g10
g9
g1
g2
g6
g5
g7
g3
g4
g8
tp1510
a(g11
g10
g9
g1
g2
g5
g6
g3
g7
g4
g8
tp1511
a(g11
g10
g9
g1
g4
g6
g8
g3
g2
g5
g7
tp1512
a(g11
g10
g9
g1
g8
g6
g4
g3
g7
g5
g2
tp1513
a(g11
g10
g9
g1
g8
g6
g5
g3
g2
g4
g7
tp1514
a(g11
g10
g9
g1
g5
g6
g2
g3
g4
g8
g7
tp1515
a(g11
g10
g9
g1
g5
g6
g4
g3
g2
g7
g8
tp1516
a(g11
g10
g9
g1
g5
g6
g7
g8
g3
g2
g4
tp1517
a(g11
g10
g9
g1
g5
g6
g7
g8
g2
g3
g4
tp1518
a(g11
g10
g9
g1
g5
g6
g7
g8
g4
g3
g2
tp1519
a(g11
g10
g9
g1
g5
g6
g7
g8
g4
g2
g3
tp1520
a(g11
g10
g9
g4
g2
g6
g8
g3
g7
g5
g1
tp1521
a(g11
g10
g9
g8
g2
g6
g5
g3
g7
g4
g1
tp1522
a(g11
g10
g9
g5
g2
g6
g1
g3
g7
g4
g8
tp1523
a(g11
g10
g8
g1
g2
g6
g4
g3
g7
g5
g9
tp1524
a(g11
g10
g8
g1
g2
g6
g5
g3
g9
g4
g7
tp1525
a(g11
g10
g5
g1
g2
g6
g4
g3
g7
g9
g8
tp1526
a(g11
g10
g5
g1
g2
g6
g4
g3
g7
g8
g9
tp1527
a(g11
g10
g5
g1
g2
g6
g8
g3
g4
g9
g7
tp1528
a(g11
g10
g5
g1
g2
g6
g7
g8
g3
g4
g9
tp1529
a(g11
g10
g5
g1
g2
g6
g7
g8
g9
g4
g3
tp1530
a(g11
g4
g3
g1
g2
g9
g8
g5
g7
g10
g6
tp1531
a(g11
g4
g3
g1
g2
g8
g5
g9
g7
g10
g6
tp1532
a(g11
g4
g3
g1
g2
g6
g9
g8
g7
g5
g10
tp1533
a(g11
g4
g3
g1
g2
g6
g8
g10
g9
g5
g7
tp1534
a(g11
g4
g3
g1
g2
g6
g8
g5
g10
g9
g7
tp1535
a(g11
g4
g3
g1
g2
g6
g5
g9
g10
g8
g7
tp1536
a(g11
g4
g3
g1
g2
g6
g5
g8
g7
g9
g10
tp1537
a(g11
g4
g3
g1
g2
g5
g8
g6
g7
g10
g9
tp1538
a(g11
g4
g3
g1
g2
g5
g6
g9
g7
g10
g8
tp1539
a(g11
g4
g3
g1
g8
g6
g5
g9
g2
g10
g7
tp1540
a(g11
g4
g3
g9
g2
g6
g8
g5
g7
g10
g1
tp1541
a(g11
g4
g3
g8
g2
g6
g5
g9
g7
g10
g1
tp1542
a(g11
g4
g3
g5
g2
g6
g1
g9
g7
g10
g8
tp1543
a(g11
g4
g3
g5
g2
g6
g8
g1
g7
g10
g9
tp1544
a(g11
g4
g1
g5
g2
g6
g8
g9
g7
g10
g3
tp1545
a(g11
g4
g2
g1
g5
g6
g3
g8
g7
g10
g9
tp1546
a(g11
g4
g2
g1
g5
g6
g9
g8
g7
g10
g3
tp1547
a(g11
g4
g10
g1
g2
g6
g8
g9
g3
g5
g7
tp1548
a(g11
g4
g9
g3
g5
g6
g8
g1
g7
g10
g2
tp1549
a(g11
g4
g9
g1
g5
g3
g8
g6
g7
g10
g2
tp1550
a(g11
g4
g9
g1
g5
g2
g8
g6
g7
g10
g3
tp1551
a(g11
g4
g9
g1
g5
g6
g3
g8
g7
g2
g10
tp1552
a(g11
g4
g9
g1
g5
g6
g2
g8
g7
g3
g10
tp1553
a(g11
g4
g9
g1
g5
g6
g8
g10
g3
g2
g7
tp1554
a(g11
g4
g9
g1
g5
g6
g8
g10
g2
g3
g7
tp1555
a(g11
g4
g9
g2
g5
g6
g8
g1
g7
g10
g3
tp1556
a(g11
g4
g8
g1
g5
g6
g3
g9
g2
g10
g7
tp1557
a(g11
g4
g8
g1
g5
g6
g2
g9
g3
g10
g7
tp1558
a(g11
g4
g6
g1
g2
g5
g8
g9
g7
g10
g3
tp1559
a(g11
g4
g5
g3
g2
g6
g8
g9
g7
g10
g1
tp1560
a(g11
g4
g5
g1
g3
g6
g8
g9
g2
g10
g7
tp1561
a(g11
g4
g5
g1
g2
g3
g8
g9
g7
g10
g6
tp1562
a(g11
g4
g5
g1
g2
g6
g8
g9
g10
g3
g7
tp1563
a(g11
g9
g3
g1
g2
g6
g5
g4
g7
g10
g8
tp1564
a(g11
g9
g3
g1
g5
g6
g7
g8
g2
g10
g4
tp1565
a(g11
g9
g3
g1
g5
g6
g7
g8
g4
g10
g2
tp1566
a(g11
g9
g2
g1
g5
g6
g4
g3
g7
g10
g8
tp1567
a(g11
g9
g2
g1
g5
g6
g8
g3
g4
g10
g7
tp1568
a(g11
g9
g4
g1
g2
g6
g8
g5
g7
g10
g3
tp1569
a(g11
g9
g4
g1
g5
g6
g8
g3
g2
g10
g7
tp1570
a(g11
g9
g8
g1
g5
g6
g4
g3
g7
g10
g2
tp1571
a(g11
g9
g5
g1
g2
g6
g8
g3
g10
g4
g7
tp1572
a(g11
g9
g5
g1
g2
g6
g8
g4
g7
g10
g3
tp1573
a(g11
g8
g3
g1
g2
g6
g9
g5
g7
g10
g4
tp1574
a(g11
g8
g3
g1
g2
g6
g5
g4
g7
g10
g9
tp1575
a(g11
g8
g2
g1
g5
g6
g4
g3
g7
g10
g9
tp1576
a(g11
g8
g4
g1
g2
g6
g5
g9
g7
g10
g3
tp1577
a(g11
g8
g9
g1
g2
g6
g3
g5
g7
g4
g10
tp1578
a(g11
g8
g9
g1
g2
g6
g5
g10
g7
g4
g3
tp1579
a(g11
g8
g9
g1
g5
g6
g3
g4
g7
g10
g2
tp1580
a(g11
g8
g9
g1
g5
g6
g2
g3
g10
g4
g7
tp1581
a(g11
g8
g9
g1
g5
g6
g2
g4
g7
g10
g3
tp1582
a(g11
g8
g9
g1
g5
g6
g4
g3
g7
g2
g10
tp1583
a(g11
g8
g5
g1
g2
g6
g3
g9
g7
g10
g4
tp1584
a(g11
g7
g3
g1
g2
g6
g8
g5
g4
g10
g9
tp1585
a(g11
g7
g3
g1
g2
g6
g8
g5
g9
g10
g4
tp1586
a(g11
g7
g3
g1
g2
g6
g5
g9
g4
g10
g8
tp1587
a(g11
g7
g9
g1
g2
g6
g8
g5
g3
g4
g10
tp1588
a(g11
g7
g9
g1
g2
g6
g8
g5
g10
g4
g3
tp1589
a(g11
g7
g9
g1
g5
g6
g8
g4
g3
g10
g2
tp1590
a(g11
g7
g9
g1
g5
g6
g8
g4
g2
g10
g3
tp1591
a(g11
g7
g5
g1
g2
g6
g8
g9
g3
g10
g4
tp1592
a(g11
g7
g5
g1
g2
g6
g8
g9
g4
g10
g3
tp1593
a(g11
g5
g3
g1
g2
g6
g9
g4
g7
g10
g8
tp1594
a(g11
g5
g3
g1
g2
g6
g8
g7
g4
g10
g9
tp1595
a(g11
g5
g3
g1
g2
g6
g8
g7
g9
g10
g4
tp1596
a(g11
g5
g3
g1
g2
g6
g7
g8
g10
g4
g9
tp1597
a(g11
g5
g3
g1
g2
g6
g7
g8
g9
g4
g10
tp1598
a(g11
g5
g10
g1
g2
g6
g8
g3
g9
g4
g7
tp1599
a(g11
g5
g4
g1
g2
g6
g3
g9
g7
g10
g8
tp1600
a(g11
g5
g9
g1
g3
g6
g8
g4
g7
g10
g2
tp1601
a(g11
g5
g9
g1
g2
g10
g8
g3
g7
g4
g6
tp1602
a(g11
g5
g9
g1
g2
g6
g3
g10
g7
g4
g8
tp1603
a(g11
g5
g9
g1
g2
g6
g8
g10
g7
g3
g4
tp1604
a(g11
g5
g9
g1
g2
g6
g8
g4
g7
g3
g10
tp1605
a(g11
g5
g9
g1
g2
g6
g8
g7
g3
g4
g10
tp1606
a(g11
g5
g9
g1
g2
g6
g8
g7
g10
g4
g3
tp1607
a(g11
g5
g9
g1
g10
g6
g8
g3
g2
g4
g7
tp1608
a(g11
g5
g8
g1
g2
g6
g3
g9
g7
g10
g4
tp1609
a(g11
g5
g7
g1
g2
g6
g8
g9
g3
g10
g4
tp1610
a(g11
g5
g7
g1
g2
g6
g8
g9
g4
g10
g3
tp1611
a(g7
g1
g3
g4
g2
g6
g8
g5
g9
g10
g11
tp1612
a(g7
g1
g3
g9
g2
g6
g8
g5
g4
g10
g11
tp1613
a(g7
g1
g3
g8
g2
g6
g5
g9
g4
g10
g11
tp1614
a(g7
g1
g3
g5
g2
g6
g8
g4
g9
g10
g11
tp1615
a(g7
g1
g4
g5
g2
g6
g8
g9
g3
g10
g11
tp1616
a(g7
g1
g9
g3
g2
g6
g8
g5
g10
g4
g11
tp1617
a(g7
g1
g9
g3
g5
g6
g8
g4
g2
g10
g11
tp1618
a(g7
g1
g9
g2
g5
g6
g8
g4
g3
g10
g11
tp1619
a(g7
g1
g9
g5
g2
g6
g8
g10
g3
g4
g11
tp1620
a(g7
g1
g5
g3
g2
g6
g8
g9
g4
g10
g11
tp1621
a(g7
g1
g5
g4
g2
g6
g8
g9
g3
g10
g11
tp1622
a(g7
g2
g3
g1
g4
g6
g5
g8
g9
g10
g11
tp1623
a(g7
g2
g3
g1
g8
g6
g4
g5
g9
g10
g11
tp1624
a(g7
g2
g4
g1
g5
g6
g3
g8
g9
g10
g11
tp1625
a(g7
g2
g4
g1
g5
g6
g9
g8
g3
g10
g11
tp1626
a(g7
g2
g9
g3
g5
g6
g8
g1
g4
g10
g11
tp1627
a(g7
g2
g9
g3
g5
g6
g8
g4
g1
g10
g11
tp1628
a(g7
g2
g9
g1
g3
g6
g5
g8
g10
g4
g11
tp1629
a(g7
g2
g9
g1
g10
g6
g5
g8
g3
g4
g11
tp1630
a(g7
g2
g9
g1
g5
g3
g8
g4
g6
g10
g11
tp1631
a(g7
g2
g9
g1
g5
g3
g8
g6
g4
g10
g11
tp1632
a(g7
g2
g9
g1
g5
g4
g8
g6
g3
g10
g11
tp1633
a(g7
g2
g9
g1
g5
g6
g4
g10
g3
g8
g11
tp1634
a(g7
g2
g9
g1
g5
g6
g8
g4
g11
g10
g3
tp1635
a(g7
g2
g9
g1
g5
g6
g8
g11
g3
g10
g4
tp1636
a(g7
g2
g9
g1
g5
g6
g8
g11
g4
g10
g3
tp1637
a(g7
g2
g9
g4
g5
g6
g8
g1
g3
g10
g11
tp1638
a(g7
g2
g5
g1
g8
g6
g4
g9
g3
g10
g11
tp1639
a(g7
g10
g4
g1
g2
g6
g3
g8
g9
g5
g11
tp1640
a(g7
g10
g4
g1
g2
g6
g9
g8
g3
g5
g11
tp1641
a(g7
g10
g4
g1
g2
g6
g5
g8
g3
g9
g11
tp1642
a(g7
g10
g4
g1
g2
g6
g5
g8
g9
g3
g11
tp1643
a(g7
g10
g9
g3
g2
g6
g8
g1
g4
g5
g11
tp1644
a(g7
g10
g9
g3
g2
g6
g8
g4
g1
g5
g11
tp1645
a(g7
g10
g9
g1
g3
g6
g2
g8
g4
g5
g11
tp1646
a(g7
g10
g9
g1
g3
g6
g4
g5
g2
g8
g11
tp1647
a(g7
g10
g9
g1
g3
g6
g5
g8
g4
g2
g11
tp1648
a(g7
g10
g9
g1
g2
g3
g8
g4
g6
g5
g11
tp1649
a(g7
g10
g9
g1
g2
g3
g8
g6
g4
g5
g11
tp1650
a(g7
g10
g9
g1
g2
g4
g8
g6
g3
g5
g11
tp1651
a(g7
g10
g9
g1
g2
g4
g8
g5
g6
g3
g11
tp1652
a(g7
g10
g9
g1
g2
g8
g3
g5
g6
g4
g11
tp1653
a(g7
g10
g9
g1
g2
g8
g6
g5
g3
g4
g11
tp1654
a(g7
g10
g9
g1
g2
g8
g5
g6
g3
g4
g11
tp1655
a(g7
g10
g9
g1
g2
g6
g3
g5
g11
g4
g8
tp1656
a(g7
g10
g9
g1
g2
g6
g8
g4
g11
g5
g3
tp1657
a(g7
g10
g9
g1
g2
g6
g8
g11
g3
g5
g4
tp1658
a(g7
g10
g9
g1
g2
g6
g8
g11
g4
g5
g3
tp1659
a(g7
g10
g9
g1
g2
g6
g8
g5
g3
g11
g4
tp1660
a(g7
g10
g9
g1
g2
g6
g8
g5
g4
g11
g3
tp1661
a(g7
g10
g9
g1
g2
g6
g8
g5
g11
g3
g4
tp1662
a(g7
g10
g9
g1
g2
g6
g11
g5
g3
g4
g8
tp1663
a(g7
g10
g9
g1
g2
g6
g5
g11
g3
g4
g8
tp1664
a(g7
g10
g9
g1
g2
g5
g8
g3
g11
g4
g6
tp1665
a(g7
g10
g9
g1
g2
g5
g8
g4
g6
g3
g11
tp1666
a(g7
g10
g9
g1
g2
g5
g8
g6
g4
g3
g11
tp1667
a(g7
g10
g9
g1
g4
g6
g3
g8
g2
g5
g11
tp1668
a(g7
g10
g9
g1
g4
g6
g2
g8
g3
g5
g11
tp1669
a(g7
g10
g9
g1
g4
g6
g5
g8
g3
g2
g11
tp1670
a(g7
g10
g9
g1
g4
g6
g5
g8
g2
g3
g11
tp1671
a(g7
g10
g9
g1
g8
g6
g4
g5
g3
g2
g11
tp1672
a(g7
g10
g9
g1
g8
g6
g4
g5
g2
g3
g11
tp1673
a(g7
g10
g9
g1
g5
g2
g4
g3
g6
g8
g11
tp1674
a(g7
g10
g9
g1
g5
g8
g4
g3
g6
g2
g11
tp1675
a(g7
g10
g9
g1
g5
g6
g4
g3
g2
g11
g8
tp1676
a(g7
g10
g9
g1
g5
g6
g4
g3
g11
g2
g8
tp1677
a(g7
g10
g9
g1
g5
g6
g4
g3
g11
g8
g2
tp1678
a(g7
g10
g9
g2
g5
g6
g4
g3
g1
g8
g11
tp1679
a(g7
g10
g9
g4
g2
g6
g8
g1
g3
g5
g11
tp1680
a(g7
g10
g9
g4
g2
g6
g8
g5
g1
g3
g11
tp1681
a(g7
g10
g9
g8
g2
g6
g3
g5
g1
g4
g11
tp1682
a(g7
g10
g9
g8
g2
g6
g1
g5
g3
g4
g11
tp1683
a(g7
g10
g9
g8
g2
g6
g5
g1
g3
g4
g11
tp1684
a(g7
g10
g9
g8
g5
g6
g4
g3
g1
g2
g11
tp1685
a(g7
g10
g9
g6
g2
g5
g8
g3
g1
g4
g11
tp1686
a(g7
g10
g9
g5
g2
g6
g8
g3
g11
g4
g1
tp1687
a(g7
g10
g9
g5
g2
g6
g8
g1
g4
g3
g11
tp1688
a(g7
g10
g9
g5
g2
g6
g8
g4
g1
g3
g11
tp1689
a(g7
g10
g8
g1
g2
g6
g4
g5
g3
g9
g11
tp1690
a(g7
g10
g8
g1
g2
g6
g4
g5
g9
g3
g11
tp1691
a(g7
g10
g5
g1
g2
g6
g3
g8
g4
g9
g11
tp1692
a(g7
g10
g5
g1
g2
g6
g9
g8
g4
g3
g11
tp1693
a(g7
g4
g3
g1
g2
g5
g8
g9
g11
g10
g6
tp1694
a(g7
g4
g3
g1
g5
g2
g9
g8
g6
g10
g11
tp1695
a(g7
g4
g3
g1
g5
g2
g6
g8
g9
g10
g11
tp1696
a(g7
g4
g3
g1
g5
g9
g2
g8
g6
g10
g11
tp1697
a(g7
g4
g3
g1
g5
g9
g6
g8
g2
g10
g11
tp1698
a(g7
g4
g3
g1
g5
g6
g2
g8
g11
g10
g9
tp1699
a(g7
g4
g3
g1
g5
g6
g9
g8
g11
g10
g2
tp1700
a(g7
g4
g3
g1
g5
g6
g11
g8
g2
g10
g9
tp1701
a(g7
g4
g3
g1
g5
g6
g11
g8
g9
g10
g2
tp1702
a(g7
g4
g3
g2
g5
g6
g1
g8
g9
g10
g11
tp1703
a(g7
g4
g3
g2
g5
g6
g9
g8
g1
g10
g11
tp1704
a(g7
g4
g3
g9
g5
g6
g1
g8
g2
g10
g11
tp1705
a(g7
g4
g3
g9
g5
g6
g2
g8
g1
g10
g11
tp1706
a(g7
g4
g3
g6
g2
g5
g8
g9
g1
g10
g11
tp1707
a(g7
g4
g3
g5
g2
g6
g8
g9
g11
g10
g1
tp1708
a(g7
g9
g3
g1
g2
g4
g8
g5
g6
g10
g11
tp1709
a(g7
g9
g3
g1
g2
g6
g4
g5
g10
g8
g11
tp1710
a(g7
g9
g3
g1
g2
g6
g8
g5
g11
g10
g4
tp1711
a(g7
g9
g3
g1
g2
g5
g8
g4
g6
g10
g11
tp1712
a(g7
g9
g3
g1
g2
g5
g8
g6
g4
g10
g11
tp1713
a(g7
g9
g3
g1
g4
g6
g5
g8
g2
g10
g11
tp1714
a(g7
g9
g3
g1
g8
g6
g4
g5
g2
g10
g11
tp1715
a(g7
g9
g3
g4
g2
g6
g8
g5
g1
g10
g11
tp1716
a(g7
g9
g3
g5
g2
g6
g8
g1
g4
g10
g11
tp1717
a(g7
g9
g3
g5
g2
g6
g8
g4
g1
g10
g11
tp1718
a(g7
g9
g2
g1
g5
g6
g3
g8
g4
g10
g11
tp1719
a(g7
g9
g10
g1
g2
g6
g5
g8
g3
g4
g11
tp1720
a(g7
g9
g4
g1
g5
g6
g3
g8
g2
g10
g11
tp1721
a(g7
g9
g4
g1
g5
g6
g2
g8
g3
g10
g11
tp1722
a(g7
g9
g5
g1
g2
g6
g3
g8
g10
g4
g11
tp1723
a(g7
g8
g3
g1
g2
g4
g5
g9
g6
g10
g11
tp1724
a(g7
g8
g3
g1
g2
g6
g4
g10
g9
g5
g11
tp1725
a(g7
g8
g3
g1
g2
g6
g4
g5
g10
g9
g11
tp1726
a(g7
g8
g3
g1
g2
g6
g5
g9
g11
g10
g4
tp1727
a(g7
g8
g3
g1
g2
g5
g6
g9
g4
g10
g11
tp1728
a(g7
g8
g3
g4
g2
g6
g5
g9
g1
g10
g11
tp1729
a(g7
g8
g3
g5
g2
g6
g1
g9
g4
g10
g11
tp1730
a(g7
g8
g10
g1
g2
g6
g4
g9
g3
g5
g11
tp1731
a(g7
g8
g9
g1
g5
g6
g4
g10
g3
g2
g11
tp1732
a(g7
g8
g9
g1
g5
g6
g4
g10
g2
g3
g11
tp1733
a(g7
g8
g5
g1
g3
g6
g4
g9
g2
g10
g11
tp1734
a(g7
g8
g5
g1
g2
g6
g4
g9
g10
g3
g11
tp1735
a(g7
g6
g2
g1
g5
g4
g8
g3
g9
g10
g11
tp1736
a(g7
g6
g2
g1
g5
g9
g8
g3
g4
g10
g11
tp1737
a(g7
g6
g10
g1
g2
g5
g8
g3
g9
g4
g11
tp1738
a(g7
g6
g4
g1
g5
g2
g8
g3
g9
g10
g11
tp1739
a(g7
g6
g4
g1
g5
g9
g8
g3
g2
g10
g11
tp1740
a(g7
g6
g9
g1
g10
g5
g8
g3
g2
g4
g11
tp1741
a(g7
g6
g9
g1
g5
g10
g8
g3
g4
g2
g11
tp1742
a(g7
g6
g9
g1
g5
g4
g8
g3
g10
g2
g11
tp1743
a(g7
g6
g9
g1
g5
g8
g2
g3
g10
g4
g11
tp1744
a(g7
g6
g5
g1
g2
g10
g8
g3
g9
g4
g11
tp1745
a(g7
g6
g5
g1
g2
g9
g8
g3
g10
g4
g11
tp1746
a(g7
g11
g3
g1
g2
g6
g8
g5
g4
g10
g9
tp1747
a(g7
g11
g3
g1
g2
g6
g8
g5
g9
g10
g4
tp1748
a(g7
g11
g3
g1
g2
g6
g5
g9
g4
g10
g8
tp1749
a(g7
g11
g9
g1
g2
g6
g8
g5
g3
g4
g10
tp1750
a(g7
g11
g9
g1
g2
g6
g8
g5
g10
g4
g3
tp1751
a(g7
g11
g9
g1
g5
g6
g8
g4
g3
g10
g2
tp1752
a(g7
g11
g9
g1
g5
g6
g8
g4
g2
g10
g3
tp1753
a(g7
g11
g5
g1
g2
g6
g8
g9
g3
g10
g4
tp1754
a(g7
g11
g5
g1
g2
g6
g8
g9
g4
g10
g3
tp1755
a(g7
g5
g3
g1
g2
g4
g8
g6
g9
g10
g11
tp1756
a(g7
g5
g3
g1
g2
g9
g8
g4
g6
g10
g11
tp1757
a(g7
g5
g3
g1
g2
g9
g8
g6
g4
g10
g11
tp1758
a(g7
g5
g3
g1
g2
g8
g6
g9
g4
g10
g11
tp1759
a(g7
g5
g3
g1
g2
g6
g4
g10
g9
g8
g11
tp1760
a(g7
g5
g3
g1
g2
g6
g8
g4
g11
g10
g9
tp1761
a(g7
g5
g3
g1
g2
g6
g8
g11
g4
g10
g9
tp1762
a(g7
g5
g3
g1
g2
g6
g8
g11
g9
g10
g4
tp1763
a(g7
g5
g3
g1
g2
g6
g11
g9
g4
g10
g8
tp1764
a(g7
g5
g3
g1
g4
g6
g2
g8
g9
g10
g11
tp1765
a(g7
g5
g3
g1
g4
g6
g9
g8
g2
g10
g11
tp1766
a(g7
g5
g3
g4
g2
g6
g8
g1
g9
g10
g11
tp1767
a(g7
g5
g3
g9
g2
g6
g8
g1
g4
g10
g11
tp1768
a(g7
g5
g3
g9
g2
g6
g8
g4
g1
g10
g11
tp1769
a(g7
g5
g3
g8
g2
g6
g1
g9
g4
g10
g11
tp1770
a(g7
g5
g1
g3
g2
g6
g8
g9
g4
g10
g11
tp1771
a(g7
g5
g1
g4
g2
g6
g8
g9
g3
g10
g11
tp1772
a(g7
g5
g2
g1
g8
g6
g4
g9
g3
g10
g11
tp1773
a(g7
g5
g10
g1
g2
g6
g3
g8
g9
g4
g11
tp1774
a(g7
g5
g10
g1
g2
g6
g4
g9
g3
g8
g11
tp1775
a(g7
g5
g10
g1
g2
g6
g9
g8
g3
g4
g11
tp1776
a(g7
g5
g4
g3
g2
g6
g8
g9
g1
g10
g11
tp1777
a(g7
g5
g4
g1
g2
g3
g8
g9
g6
g10
g11
tp1778
a(g7
g5
g4
g1
g2
g6
g8
g9
g11
g10
g3
tp1779
a(g7
g5
g9
g3
g2
g6
g8
g1
g10
g4
g11
tp1780
a(g7
g5
g9
g3
g2
g6
g8
g10
g1
g4
g11
tp1781
a(g7
g5
g9
g1
g3
g6
g2
g8
g10
g4
g11
tp1782
a(g7
g5
g9
g1
g2
g3
g8
g10
g6
g4
g11
tp1783
a(g7
g5
g9
g1
g2
g3
g8
g6
g10
g4
g11
tp1784
a(g7
g5
g9
g1
g2
g10
g8
g6
g3
g4
g11
tp1785
a(g7
g5
g9
g1
g2
g6
g8
g10
g11
g4
g3
tp1786
a(g7
g5
g9
g1
g2
g6
g8
g11
g3
g4
g10
tp1787
a(g7
g5
g9
g1
g2
g6
g8
g11
g10
g4
g3
tp1788
a(g7
g5
g9
g1
g10
g6
g3
g8
g2
g4
g11
tp1789
a(g7
g5
g9
g1
g10
g6
g2
g8
g3
g4
g11
tp1790
a(g7
g5
g8
g1
g3
g6
g4
g9
g2
g10
g11
tp1791
a(g7
g5
g8
g1
g2
g6
g4
g9
g10
g3
g11
tp1792
a(g7
g5
g6
g1
g2
g3
g8
g9
g4
g10
g11
tp1793
a(g7
g5
g6
g1
g2
g4
g8
g9
g3
g10
g11
tp1794
a(g5
g1
g3
g4
g2
g6
g8
g7
g9
g10
g11
tp1795
a(g5
g1
g3
g9
g2
g6
g8
g7
g4
g10
g11
tp1796
a(g5
g1
g3
g9
g2
g6
g7
g8
g10
g4
g11
tp1797
a(g5
g1
g3
g8
g2
g6
g9
g4
g7
g10
g11
tp1798
a(g5
g1
g4
g8
g2
g6
g3
g9
g7
g10
g11
tp1799
a(g5
g1
g9
g3
g2
g6
g8
g7
g10
g4
g11
tp1800
a(g5
g1
g9
g2
g3
g6
g8
g4
g7
g10
g11
tp1801
a(g5
g1
g9
g4
g2
g6
g8
g10
g7
g3
g11
tp1802
a(g5
g1
g9
g8
g2
g6
g3
g10
g7
g4
g11
tp1803
a(g5
g1
g9
g6
g2
g10
g8
g3
g7
g4
g11
tp1804
a(g5
g1
g8
g4
g2
g6
g3
g9
g7
g10
g11
tp1805
a(g5
g1
g7
g3
g2
g6
g8
g9
g4
g10
g11
tp1806
a(g5
g1
g7
g4
g2
g6
g8
g9
g3
g10
g11
tp1807
a(g5
g2
g3
g1
g8
g6
g4
g7
g9
g10
g11
tp1808
a(g5
g2
g3
g1
g7
g6
g9
g8
g4
g10
g11
tp1809
a(g5
g2
g4
g1
g3
g6
g9
g8
g7
g10
g11
tp1810
a(g5
g2
g9
g3
g1
g6
g8
g4
g7
g10
g11
tp1811
a(g5
g2
g9
g3
g4
g6
g8
g1
g7
g10
g11
tp1812
a(g5
g2
g9
g1
g3
g4
g8
g6
g7
g10
g11
tp1813
a(g5
g2
g9
g1
g3
g6
g4
g10
g7
g8
g11
tp1814
a(g5
g2
g9
g1
g3
g6
g8
g11
g7
g10
g4
tp1815
a(g5
g2
g9
g1
g10
g6
g8
g3
g11
g4
g7
tp1816
a(g5
g2
g9
g1
g4
g3
g8
g6
g7
g10
g11
tp1817
a(g5
g2
g9
g1
g4
g6
g8
g11
g7
g10
g3
tp1818
a(g5
g2
g9
g1
g8
g6
g4
g10
g7
g3
g11
tp1819
a(g5
g2
g9
g1
g6
g3
g8
g4
g7
g10
g11
tp1820
a(g5
g2
g9
g1
g11
g6
g8
g3
g10
g4
g7
tp1821
a(g5
g2
g9
g1
g11
g6
g8
g4
g7
g10
g3
tp1822
a(g5
g2
g9
g1
g7
g6
g3
g8
g10
g4
g11
tp1823
a(g5
g2
g9
g4
g3
g6
g8
g1
g7
g10
g11
tp1824
a(g5
g2
g8
g1
g7
g6
g4
g9
g3
g10
g11
tp1825
a(g5
g2
g7
g1
g8
g6
g4
g9
g3
g10
g11
tp1826
a(g5
g10
g3
g1
g2
g4
g7
g8
g6
g9
g11
tp1827
a(g5
g10
g3
g1
g2
g6
g7
g8
g4
g11
g9
tp1828
a(g5
g10
g3
g1
g2
g6
g7
g8
g9
g11
g4
tp1829
a(g5
g10
g3
g1
g2
g6
g7
g8
g11
g9
g4
tp1830
a(g5
g10
g3
g4
g2
g6
g7
g8
g1
g9
g11
tp1831
a(g5
g10
g1
g3
g2
g6
g7
g8
g9
g4
g11
tp1832
a(g5
g10
g1
g9
g2
g6
g4
g3
g7
g8
g11
tp1833
a(g5
g10
g1
g9
g2
g6
g7
g8
g3
g4
g11
tp1834
a(g5
g10
g1
g8
g2
g6
g4
g3
g7
g9
g11
tp1835
a(g5
g10
g4
g1
g2
g6
g3
g8
g9
g7
g11
tp1836
a(g5
g10
g4
g1
g2
g6
g9
g8
g3
g7
g11
tp1837
a(g5
g10
g4
g1
g2
g6
g8
g3
g9
g11
g7
tp1838
a(g5
g10
g4
g1
g2
g6
g8
g3
g11
g9
g7
tp1839
a(g5
g10
g9
g3
g1
g6
g7
g8
g2
g4
g11
tp1840
a(g5
g10
g9
g3
g2
g6
g1
g4
g7
g8
g11
tp1841
a(g5
g10
g9
g3
g2
g6
g8
g1
g4
g7
g11
tp1842
a(g5
g10
g9
g3
g2
g6
g8
g4
g1
g7
g11
tp1843
a(g5
g10
g9
g1
g3
g2
g7
g8
g6
g4
g11
tp1844
a(g5
g10
g9
g1
g3
g6
g2
g8
g4
g7
g11
tp1845
a(g5
g10
g9
g1
g3
g6
g4
g7
g2
g8
g11
tp1846
a(g5
g10
g9
g1
g3
g6
g7
g8
g11
g4
g2
tp1847
a(g5
g10
g9
g1
g2
g3
g8
g4
g6
g7
g11
tp1848
a(g5
g10
g9
g1
g2
g3
g8
g6
g4
g7
g11
tp1849
a(g5
g10
g9
g1
g2
g3
g6
g4
g7
g8
g11
tp1850
a(g5
g10
g9
g1
g2
g4
g3
g6
g7
g8
g11
tp1851
a(g5
g10
g9
g1
g2
g4
g8
g3
g7
g11
g6
tp1852
a(g5
g10
g9
g1
g2
g4
g8
g6
g3
g7
g11
tp1853
a(g5
g10
g9
g1
g2
g4
g8
g7
g6
g3
g11
tp1854
a(g5
g10
g9
g1
g2
g8
g3
g7
g6
g4
g11
tp1855
a(g5
g10
g9
g1
g2
g8
g6
g4
g7
g3
g11
tp1856
a(g5
g10
g9
g1
g2
g8
g6
g7
g3
g4
g11
tp1857
a(g5
g10
g9
g1
g2
g8
g11
g3
g7
g4
g6
tp1858
a(g5
g10
g9
g1
g2
g6
g3
g4
g7
g11
g8
tp1859
a(g5
g10
g9
g1
g2
g6
g3
g11
g7
g8
g4
tp1860
a(g5
g10
g9
g1
g2
g6
g3
g7
g11
g4
g8
tp1861
a(g5
g10
g9
g1
g2
g6
g8
g4
g11
g7
g3
tp1862
a(g5
g10
g9
g1
g2
g6
g8
g11
g3
g7
g4
tp1863
a(g5
g10
g9
g1
g2
g6
g8
g11
g4
g7
g3
tp1864
a(g5
g10
g9
g1
g2
g6
g8
g7
g3
g11
g4
tp1865
a(g5
g10
g9
g1
g2
g6
g8
g7
g4
g11
g3
tp1866
a(g5
g10
g9
g1
g2
g6
g8
g7
g11
g3
g4
tp1867
a(g5
g10
g9
g1
g2
g6
g11
g4
g7
g3
g8
tp1868
a(g5
g10
g9
g1
g2
g6
g11
g4
g7
g8
g3
tp1869
a(g5
g10
g9
g1
g2
g6
g11
g7
g3
g4
g8
tp1870
a(g5
g10
g9
g1
g2
g11
g6
g3
g7
g4
g8
tp1871
a(g5
g10
g9
g1
g2
g7
g8
g3
g11
g4
g6
tp1872
a(g5
g10
g9
g1
g2
g7
g8
g4
g6
g3
g11
tp1873
a(g5
g10
g9
g1
g2
g7
g8
g6
g4
g3
g11
tp1874
a(g5
g10
g9
g1
g4
g6
g3
g8
g2
g7
g11
tp1875
a(g5
g10
g9
g1
g4
g6
g2
g8
g3
g7
g11
tp1876
a(g5
g10
g9
g1
g4
g6
g8
g3
g2
g11
g7
tp1877
a(g5
g10
g9
g1
g4
g6
g8
g3
g11
g2
g7
tp1878
a(g5
g10
g9
g1
g8
g6
g2
g3
g11
g4
g7
tp1879
a(g5
g10
g9
g1
g8
g6
g4
g3
g7
g11
g2
tp1880
a(g5
g10
g9
g1
g8
g6
g4
g7
g3
g2
g11
tp1881
a(g5
g10
g9
g1
g8
g6
g4
g7
g2
g3
g11
tp1882
a(g5
g10
g9
g1
g8
g6
g11
g3
g2
g4
g7
tp1883
a(g5
g10
g9
g1
g6
g3
g7
g8
g2
g4
g11
tp1884
a(g5
g10
g9
g1
g6
g2
g4
g3
g7
g8
g11
tp1885
a(g5
g10
g9
g1
g6
g2
g7
g8
g3
g4
g11
tp1886
a(g5
g10
g9
g1
g6
g8
g4
g3
g7
g2
g11
tp1887
a(g5
g10
g9
g1
g11
g6
g4
g3
g7
g2
g8
tp1888
a(g5
g10
g9
g1
g11
g6
g4
g3
g7
g8
g2
tp1889
a(g5
g10
g9
g1
g11
g6
g8
g3
g4
g2
g7
tp1890
a(g5
g10
g9
g1
g11
g6
g7
g8
g3
g4
g2
tp1891
a(g5
g10
g9
g1
g11
g6
g7
g8
g2
g4
g3
tp1892
a(g5
g10
g9
g1
g7
g6
g3
g8
g4
g2
g11
tp1893
a(g5
g10
g9
g1
g7
g6
g2
g8
g4
g3
g11
tp1894
a(g5
g10
g9
g2
g3
g6
g7
g8
g1
g4
g11
tp1895
a(g5
g10
g9
g2
g1
g6
g4
g3
g7
g8
g11
tp1896
a(g5
g10
g9
g2
g1
g6
g7
g8
g3
g4
g11
tp1897
a(g5
g10
g9
g4
g2
g6
g3
g1
g7
g8
g11
tp1898
a(g5
g10
g9
g4
g2
g6
g8
g3
g7
g11
g1
tp1899
a(g5
g10
g9
g4
g2
g6
g8
g1
g3
g7
g11
tp1900
a(g5
g10
g9
g4
g2
g6
g8
g7
g1
g3
g11
tp1901
a(g5
g10
g9
g8
g1
g6
g4
g3
g7
g2
g11
tp1902
a(g5
g10
g9
g8
g2
g6
g3
g7
g1
g4
g11
tp1903
a(g5
g10
g9
g8
g2
g6
g1
g4
g7
g3
g11
tp1904
a(g5
g10
g9
g8
g2
g6
g1
g7
g3
g4
g11
tp1905
a(g5
g10
g9
g8
g2
g6
g11
g3
g7
g4
g1
tp1906
a(g5
g10
g9
g6
g2
g8
g1
g3
g7
g4
g11
tp1907
a(g5
g10
g9
g6
g2
g7
g8
g3
g1
g4
g11
tp1908
a(g5
g10
g8
g1
g2
g6
g4
g3
g7
g11
g9
tp1909
a(g5
g10
g8
g1
g2
g6
g4
g7
g3
g9
g11
tp1910
a(g5
g10
g8
g1
g2
g6
g4
g7
g9
g3
g11
tp1911
a(g5
g10
g8
g1
g2
g6
g9
g3
g11
g4
g7
tp1912
a(g5
g10
g8
g1
g2
g6
g11
g3
g9
g4
g7
tp1913
a(g5
g10
g6
g1
g2
g3
g7
g8
g9
g4
g11
tp1914
a(g5
g10
g6
g1
g2
g9
g4
g3
g7
g8
g11
tp1915
a(g5
g10
g6
g1
g2
g9
g7
g8
g3
g4
g11
tp1916
a(g5
g10
g6
g1
g2
g8
g4
g3
g7
g9
g11
tp1917
a(g5
g10
g7
g1
g2
g6
g3
g8
g4
g9
g11
tp1918
a(g5
g10
g7
g1
g2
g6
g9
g8
g4
g3
g11
tp1919
a(g5
g4
g3
g1
g2
g10
g6
g8
g7
g9
g11
tp1920
a(g5
g4
g3
g1
g2
g9
g8
g11
g7
g10
g6
tp1921
a(g5
g4
g3
g1
g2
g8
g11
g9
g7
g10
g6
tp1922
a(g5
g4
g3
g1
g2
g6
g9
g8
g7
g11
g10
tp1923
a(g5
g4
g3
g1
g2
g6
g8
g10
g9
g11
g7
tp1924
a(g5
g4
g3
g1
g2
g6
g8
g10
g11
g9
g7
tp1925
a(g5
g4
g3
g1
g2
g6
g8
g11
g10
g9
g7
tp1926
a(g5
g4
g3
g1
g2
g6
g11
g9
g10
g8
g7
tp1927
a(g5
g4
g3
g1
g2
g6
g11
g8
g7
g9
g10
tp1928
a(g5
g4
g3
g1
g2
g11
g8
g6
g7
g10
g9
tp1929
a(g5
g4
g3
g1
g2
g11
g6
g9
g7
g10
g8
tp1930
a(g5
g4
g3
g1
g2
g7
g8
g9
g11
g10
g6
tp1931
a(g5
g4
g3
g1
g8
g6
g2
g9
g11
g10
g7
tp1932
a(g5
g4
g3
g1
g8
g6
g11
g9
g2
g10
g7
tp1933
a(g5
g4
g3
g1
g6
g2
g9
g8
g7
g10
g11
tp1934
a(g5
g4
g3
g1
g6
g9
g2
g8
g7
g10
g11
tp1935
a(g5
g4
g3
g1
g11
g6
g2
g8
g7
g10
g9
tp1936
a(g5
g4
g3
g1
g11
g6
g9
g8
g7
g10
g2
tp1937
a(g5
g4
g3
g2
g1
g6
g9
g8
g7
g10
g11
tp1938
a(g5
g4
g3
g9
g1
g6
g2
g8
g7
g10
g11
tp1939
a(g5
g4
g3
g9
g2
g6
g8
g11
g7
g10
g1
tp1940
a(g5
g4
g3
g8
g2
g6
g11
g9
g7
g10
g1
tp1941
a(g5
g4
g3
g6
g2
g9
g8
g1
g7
g10
g11
tp1942
a(g5
g4
g3
g6
g2
g8
g1
g9
g7
g10
g11
tp1943
a(g5
g4
g3
g6
g2
g7
g8
g9
g1
g10
g11
tp1944
a(g5
g4
g1
g6
g2
g3
g8
g9
g7
g10
g11
tp1945
a(g5
g4
g2
g1
g3
g6
g8
g9
g11
g10
g7
tp1946
a(g5
g4
g2
g1
g11
g6
g8
g9
g3
g10
g7
tp1947
a(g5
g4
g10
g1
g2
g6
g8
g9
g3
g11
g7
tp1948
a(g5
g4
g10
g1
g2
g6
g8
g9
g11
g3
g7
tp1949
a(g5
g4
g6
g1
g2
g11
g8
g9
g7
g10
g3
tp1950
a(g5
g9
g3
g1
g2
g10
g7
g8
g6
g4
g11
tp1951
a(g5
g9
g3
g1
g2
g4
g8
g7
g6
g10
g11
tp1952
a(g5
g9
g3
g1
g2
g8
g6
g4
g7
g10
g11
tp1953
a(g5
g9
g3
g1
g2
g6
g4
g7
g10
g8
g11
tp1954
a(g5
g9
g3
g1
g2
g6
g8
g7
g11
g10
g4
tp1955
a(g5
g9
g3
g1
g2
g6
g11
g4
g7
g10
g8
tp1956
a(g5
g9
g3
g1
g2
g6
g7
g8
g11
g4
g10
tp1957
a(g5
g9
g3
g1
g2
g7
g8
g4
g6
g10
g11
tp1958
a(g5
g9
g3
g1
g2
g7
g8
g6
g4
g10
g11
tp1959
a(g5
g9
g3
g1
g8
g6
g4
g7
g2
g10
g11
tp1960
a(g5
g9
g3
g1
g7
g6
g2
g8
g4
g10
g11
tp1961
a(g5
g9
g3
g4
g2
g6
g8
g7
g1
g10
g11
tp1962
a(g5
g9
g3
g8
g2
g6
g1
g4
g7
g10
g11
tp1963
a(g5
g9
g1
g3
g2
g6
g8
g4
g7
g10
g11
tp1964
a(g5
g9
g2
g1
g4
g6
g3
g8
g7
g10
g11
tp1965
a(g5
g9
g10
g1
g2
g6
g8
g3
g11
g4
g7
tp1966
a(g5
g9
g4
g3
g2
g6
g8
g1
g7
g10
g11
tp1967
a(g5
g9
g4
g1
g3
g6
g2
g8
g7
g10
g11
tp1968
a(g5
g9
g4
g1
g2
g3
g8
g6
g7
g10
g11
tp1969
a(g5
g9
g4
g1
g2
g6
g8
g11
g7
g10
g3
tp1970
a(g5
g9
g8
g1
g2
g6
g4
g10
g7
g3
g11
tp1971
a(g5
g9
g6
g1
g2
g3
g8
g4
g7
g10
g11
tp1972
a(g5
g9
g7
g1
g2
g6
g3
g8
g10
g4
g11
tp1973
a(g5
g8
g3
g1
g2
g4
g9
g6
g7
g10
g11
tp1974
a(g5
g8
g3
g1
g2
g9
g6
g4
g7
g10
g11
tp1975
a(g5
g8
g3
g1
g2
g6
g4
g10
g9
g7
g11
tp1976
a(g5
g8
g3
g1
g2
g6
g4
g7
g10
g9
g11
tp1977
a(g5
g8
g3
g1
g2
g6
g9
g11
g7
g10
g4
tp1978
a(g5
g8
g3
g1
g2
g6
g11
g4
g7
g10
g9
tp1979
a(g5
g8
g3
g1
g2
g7
g6
g9
g4
g10
g11
tp1980
a(g5
g8
g3
g4
g2
g6
g9
g1
g7
g10
g11
tp1981
a(g5
g8
g3
g9
g2
g6
g1
g4
g7
g10
g11
tp1982
a(g5
g8
g1
g4
g2
g6
g3
g9
g7
g10
g11
tp1983
a(g5
g8
g2
g1
g7
g6
g4
g9
g3
g10
g11
tp1984
a(g5
g8
g10
g1
g2
g6
g4
g9
g3
g7
g11
tp1985
a(g5
g8
g4
g3
g2
g6
g1
g9
g7
g10
g11
tp1986
a(g5
g8
g4
g1
g2
g3
g6
g9
g7
g10
g11
tp1987
a(g5
g8
g4
g1
g2
g6
g11
g9
g7
g10
g3
tp1988
a(g5
g8
g9
g3
g2
g6
g1
g10
g7
g4
g11
tp1989
a(g5
g8
g9
g1
g3
g6
g4
g10
g7
g2
g11
tp1990
a(g5
g8
g9
g1
g2
g3
g6
g10
g7
g4
g11
tp1991
a(g5
g8
g9
g1
g2
g10
g3
g6
g7
g4
g11
tp1992
a(g5
g8
g9
g1
g2
g6
g3
g11
g7
g4
g10
tp1993
a(g5
g8
g9
g1
g2
g6
g11
g10
g7
g4
g3
tp1994
a(g5
g8
g6
g1
g2
g4
g3
g9
g7
g10
g11
tp1995
a(g5
g8
g7
g1
g3
g6
g4
g9
g2
g10
g11
tp1996
a(g5
g8
g7
g1
g2
g6
g4
g9
g10
g3
g11
tp1997
a(g5
g6
g3
g1
g2
g10
g7
g9
g4
g8
g11
tp1998
a(g5
g6
g3
g1
g2
g4
g7
g9
g10
g8
g11
tp1999
a(g5
g6
g3
g1
g2
g8
g7
g10
g9
g4
g11
tp2000
a(g5
g6
g3
g1
g4
g8
g7
g9
g2
g10
g11
tp2001
a(g5
g6
g3
g1
g8
g2
g7
g9
g4
g10
g11
tp2002
a(g5
g6
g3
g1
g8
g4
g7
g9
g2
g10
g11
tp2003
a(g5
g6
g2
g1
g4
g9
g8
g3
g7
g10
g11
tp2004
a(g5
g6
g10
g1
g2
g4
g8
g3
g7
g9
g11
tp2005
a(g5
g6
g10
g1
g2
g8
g9
g3
g7
g4
g11
tp2006
a(g5
g6
g10
g1
g2
g8
g7
g9
g3
g4
g11
tp2007
a(g5
g6
g10
g1
g2
g7
g8
g3
g9
g4
g11
tp2008
a(g5
g6
g4
g1
g2
g10
g8
g3
g7
g9
g11
tp2009
a(g5
g6
g9
g1
g10
g4
g8
g3
g7
g2
g11
tp2010
a(g5
g6
g9
g1
g10
g8
g2
g3
g7
g4
g11
tp2011
a(g5
g6
g9
g1
g10
g7
g8
g3
g2
g4
g11
tp2012
a(g5
g6
g9
g1
g4
g10
g8
g3
g7
g2
g11
tp2013
a(g5
g6
g9
g1
g8
g10
g2
g3
g7
g4
g11
tp2014
a(g5
g6
g9
g1
g7
g2
g8
g3
g10
g4
g11
tp2015
a(g5
g6
g9
g1
g7
g10
g8
g3
g2
g4
g11
tp2016
a(g5
g6
g8
g1
g2
g3
g7
g9
g10
g4
g11
tp2017
a(g5
g6
g8
g1
g2
g10
g9
g3
g7
g4
g11
tp2018
a(g5
g6
g8
g1
g2
g10
g7
g9
g3
g4
g11
tp2019
a(g5
g6
g7
g1
g2
g10
g8
g3
g9
g4
g11
tp2020
a(g5
g6
g7
g1
g2
g9
g8
g3
g10
g4
g11
tp2021
a(g5
g11
g3
g1
g2
g6
g9
g4
g7
g10
g8
tp2022
a(g5
g11
g3
g1
g2
g6
g8
g7
g4
g10
g9
tp2023
a(g5
g11
g3
g1
g2
g6
g8
g7
g9
g10
g4
tp2024
a(g5
g11
g3
g1
g2
g6
g7
g8
g10
g4
g9
tp2025
a(g5
g11
g3
g1
g2
g6
g7
g8
g9
g4
g10
tp2026
a(g5
g11
g10
g1
g2
g6
g8
g3
g9
g4
g7
tp2027
a(g5
g11
g4
g1
g2
g6
g3
g9
g7
g10
g8
tp2028
a(g5
g11
g9
g1
g3
g6
g8
g4
g7
g10
g2
tp2029
a(g5
g11
g9
g1
g2
g10
g8
g3
g7
g4
g6
tp2030
a(g5
g11
g9
g1
g2
g6
g3
g10
g7
g4
g8
tp2031
a(g5
g11
g9
g1
g2
g6
g8
g10
g7
g3
g4
tp2032
a(g5
g11
g9
g1
g2
g6
g8
g4
g7
g3
g10
tp2033
a(g5
g11
g9
g1
g2
g6
g8
g7
g3
g4
g10
tp2034
a(g5
g11
g9
g1
g2
g6
g8
g7
g10
g4
g3
tp2035
a(g5
g11
g9
g1
g10
g6
g8
g3
g2
g4
g7
tp2036
a(g5
g11
g8
g1
g2
g6
g3
g9
g7
g10
g4
tp2037
a(g5
g11
g7
g1
g2
g6
g8
g9
g3
g10
g4
tp2038
a(g5
g11
g7
g1
g2
g6
g8
g9
g4
g10
g3
tp2039
a(g5
g7
g3
g1
g2
g4
g8
g6
g9
g10
g11
tp2040
a(g5
g7
g3
g1
g2
g9
g8
g4
g6
g10
g11
tp2041
a(g5
g7
g3
g1
g2
g9
g8
g6
g4
g10
g11
tp2042
a(g5
g7
g3
g1
g2
g8
g6
g9
g4
g10
g11
tp2043
a(g5
g7
g3
g1
g2
g6
g4
g10
g9
g8
g11
tp2044
a(g5
g7
g3
g1
g2
g6
g8
g4
g11
g10
g9
tp2045
a(g5
g7
g3
g1
g2
g6
g8
g11
g4
g10
g9
tp2046
a(g5
g7
g3
g1
g2
g6
g8
g11
g9
g10
g4
tp2047
a(g5
g7
g3
g1
g2
g6
g11
g9
g4
g10
g8
tp2048
a(g5
g7
g3
g1
g4
g6
g2
g8
g9
g10
g11
tp2049
a(g5
g7
g3
g1
g4
g6
g9
g8
g2
g10
g11
tp2050
a(g5
g7
g3
g4
g2
g6
g8
g1
g9
g10
g11
tp2051
a(g5
g7
g3
g9
g2
g6
g8
g1
g4
g10
g11
tp2052
a(g5
g7
g3
g9
g2
g6
g8
g4
g1
g10
g11
tp2053
a(g5
g7
g3
g8
g2
g6
g1
g9
g4
g10
g11
tp2054
a(g5
g7
g1
g3
g2
g6
g8
g9
g4
g10
g11
tp2055
a(g5
g7
g1
g4
g2
g6
g8
g9
g3
g10
g11
tp2056
a(g5
g7
g2
g1
g8
g6
g4
g9
g3
g10
g11
tp2057
a(g5
g7
g10
g1
g2
g6
g3
g8
g9
g4
g11
tp2058
a(g5
g7
g10
g1
g2
g6
g4
g9
g3
g8
g11
tp2059
a(g5
g7
g10
g1
g2
g6
g9
g8
g3
g4
g11
tp2060
a(g5
g7
g4
g3
g2
g6
g8
g9
g1
g10
g11
tp2061
a(g5
g7
g4
g1
g2
g3
g8
g9
g6
g10
g11
tp2062
a(g5
g7
g4
g1
g2
g6
g8
g9
g11
g10
g3
tp2063
a(g5
g7
g9
g3
g2
g6
g8
g1
g10
g4
g11
tp2064
a(g5
g7
g9
g3
g2
g6
g8
g10
g1
g4
g11
tp2065
a(g5
g7
g9
g1
g3
g6
g2
g8
g10
g4
g11
tp2066
a(g5
g7
g9
g1
g2
g3
g8
g10
g6
g4
g11
tp2067
a(g5
g7
g9
g1
g2
g3
g8
g6
g10
g4
g11
tp2068
a(g5
g7
g9
g1
g2
g10
g8
g6
g3
g4
g11
tp2069
a(g5
g7
g9
g1
g2
g6
g8
g10
g11
g4
g3
tp2070
a(g5
g7
g9
g1
g2
g6
g8
g11
g3
g4
g10
tp2071
a(g5
g7
g9
g1
g2
g6
g8
g11
g10
g4
g3
tp2072
a(g5
g7
g9
g1
g10
g6
g3
g8
g2
g4
g11
tp2073
a(g5
g7
g9
g1
g10
g6
g2
g8
g3
g4
g11
tp2074
a(g5
g7
g8
g1
g3
g6
g4
g9
g2
g10
g11
tp2075
a(g5
g7
g8
g1
g2
g6
g4
g9
g10
g3
g11
tp2076
a(g5
g7
g6
g1
g2
g3
g8
g9
g4
g10
g11
tp2077
a(g5
g7
g6
g1
g2
g4
g8
g9
g3
g10
g11
tp2078
a.